Archive member included because of file (symbol)

/opt/hisi-linux-nptl/arm-hisiv100-linux/bin/../target/usr/lib/libpthread.a(pthread_create.os)
                              main.o (pthread_create)
/opt/hisi-linux-nptl/arm-hisiv100-linux/bin/../target/usr/lib/libpthread.a(pthread_getspecific.os)
                              /opt/hisi-linux-nptl/arm-hisiv100-linux/bin/../target/usr/lib/libpthread.a(pthread_create.os) (pthread_getspecific)
/opt/hisi-linux-nptl/arm-hisiv100-linux/bin/../target/usr/lib/libpthread.a(pthread_key_create.os)
                              /opt/hisi-linux-nptl/arm-hisiv100-linux/bin/../target/usr/lib/libpthread.a(pthread_create.os) (pthread_key_create)
/opt/hisi-linux-nptl/arm-hisiv100-linux/bin/../target/usr/lib/libpthread.a(pthread_key_delete.os)
                              /opt/hisi-linux-nptl/arm-hisiv100-linux/bin/../target/usr/lib/libpthread.a(pthread_create.os) (pthread_key_delete)
/opt/hisi-linux-nptl/arm-hisiv100-linux/bin/../target/usr/lib/libpthread.a(pthread_mutex_destroy.os)
                              videoenc.o (pthread_mutex_destroy)
/opt/hisi-linux-nptl/arm-hisiv100-linux/bin/../target/usr/lib/libpthread.a(pthread_mutex_init.os)
                              videoenc.o (pthread_mutex_init)
/opt/hisi-linux-nptl/arm-hisiv100-linux/bin/../target/usr/lib/libpthread.a(pthread_mutex_lock.os)
                              videoenc.o (pthread_mutex_lock)
/opt/hisi-linux-nptl/arm-hisiv100-linux/bin/../target/usr/lib/libpthread.a(pthread_mutex_trylock.os)
                              /opt/hisi-linux-nptl/arm-hisiv100-linux/bin/../target/usr/lib/libpthread.a(pthread_create.os) (pthread_mutex_trylock)
/opt/hisi-linux-nptl/arm-hisiv100-linux/bin/../target/usr/lib/libpthread.a(pthread_mutex_unlock.os)
                              videoenc.o (pthread_mutex_unlock)
/opt/hisi-linux-nptl/arm-hisiv100-linux/bin/../target/usr/lib/libpthread.a(pthread_once.os)
                              /opt/hisi-linux-nptl/arm-hisiv100-linux/bin/../target/usr/lib/libpthread.a(pthread_create.os) (pthread_once)
/opt/hisi-linux-nptl/arm-hisiv100-linux/bin/../target/usr/lib/libpthread.a(pthread_setspecific.os)
                              /opt/hisi-linux-nptl/arm-hisiv100-linux/bin/../target/usr/lib/libpthread.a(pthread_create.os) (pthread_setspecific)
/opt/hisi-linux-nptl/arm-hisiv100-linux/bin/../target/usr/lib/libpthread.a(tpp.os)
                              /opt/hisi-linux-nptl/arm-hisiv100-linux/bin/../target/usr/lib/libpthread.a(pthread_mutex_lock.os) (__pthread_current_priority)
/opt/hisi-linux-nptl/arm-hisiv100-linux/bin/../target/usr/lib/libpthread.a(vars.os)
                              /opt/hisi-linux-nptl/arm-hisiv100-linux/bin/../target/usr/lib/libpthread.a(pthread_create.os) (__default_stacksize)
/opt/hisi-linux-nptl/arm-hisiv100-linux/bin/../target/usr/lib/libpthread.a(aeabi_read_tp.os)
                              /opt/hisi-linux-nptl/arm-hisiv100-linux/bin/../target/usr/lib/libpthread.a(pthread_create.os) (__aeabi_read_tp)
/opt/hisi-linux-nptl/arm-hisiv100-linux/bin/../target/usr/lib/libpthread.a(cancellation.os)
                              /opt/hisi-linux-nptl/arm-hisiv100-linux/bin/../target/usr/lib/libpthread.a(pthread_create.os) (__pthread_disable_asynccancel)
/opt/hisi-linux-nptl/arm-hisiv100-linux/bin/../target/usr/lib/libpthread.a(cleanup_defer_compat.os)
                              /opt/hisi-linux-nptl/arm-hisiv100-linux/bin/../target/usr/lib/libpthread.a(pthread_create.os) (_pthread_cleanup_push_defer)
/opt/hisi-linux-nptl/arm-hisiv100-linux/bin/../target/usr/lib/libpthread.a(events.os)
                              /opt/hisi-linux-nptl/arm-hisiv100-linux/bin/../target/usr/lib/libpthread.a(pthread_create.os) (__GI___nptl_create_event)
/opt/hisi-linux-nptl/arm-hisiv100-linux/bin/../target/usr/lib/libpthread.a(init.os)
                              /opt/hisi-linux-nptl/arm-hisiv100-linux/bin/../target/usr/lib/libpthread.a(pthread_create.os) (__xidcmd)
/opt/hisi-linux-nptl/arm-hisiv100-linux/bin/../target/usr/lib/libpthread.a(lowlevellock.os)
                              /opt/hisi-linux-nptl/arm-hisiv100-linux/bin/../target/usr/lib/libpthread.a(pthread_create.os) (__lll_lock_wait_private)
/opt/hisi-linux-nptl/arm-hisiv100-linux/bin/../target/usr/lib/libpthread.a(lowlevelrobustlock.os)
                              /opt/hisi-linux-nptl/arm-hisiv100-linux/bin/../target/usr/lib/libpthread.a(pthread_mutex_lock.os) (__lll_robust_lock_wait)
/opt/hisi-linux-nptl/arm-hisiv100-linux/bin/../target/usr/lib/libpthread.a(pthread_cancel.os)
                              /opt/hisi-linux-nptl/arm-hisiv100-linux/bin/../target/usr/lib/libpthread.a(pthread_create.os) (pthread_cancel)
/opt/hisi-linux-nptl/arm-hisiv100-linux/bin/../target/usr/lib/libpthread.a(unwind.os)
                              /opt/hisi-linux-nptl/arm-hisiv100-linux/bin/../target/usr/lib/libpthread.a(cancellation.os) (__GI___pthread_unwind)
/opt/hisi-linux-nptl/arm-hisiv100-linux/bin/../target/usr/lib/libpthread.a(pt-longjmp.os)
                              /opt/hisi-linux-nptl/arm-hisiv100-linux/bin/../target/usr/lib/libpthread.a(unwind.os) (longjmp)
./lib/libmpi.a(mpi_venc.o)    videoenc.o (HI_MPI_VENC_CreateGroup)
./lib/libmpi.a(mpi_vi.o)      init.o (HI_MPI_VI_EnableChn422to420)
./lib/libmem.a(memcpy_back.o)
                              videoenc.o (memcpy_back)
./lib/libmem.a(memset1.o)     init.o (memset1)
./lib/libmem.a(memcpy1.o)     ./lib/libmem.a(memcpy_back.o) (memcpy1)
/opt/hisi-linux-nptl/arm-hisiv100-linux/bin/../lib/gcc/arm-hisiv100-linux-uclibcgnueabi/4.4.1/libgcc.a(_udivsi3.o)
                              /opt/hisi-linux-nptl/arm-hisiv100-linux/bin/../target/usr/lib/libpthread.a(init.os) (__aeabi_uidiv)
/opt/hisi-linux-nptl/arm-hisiv100-linux/bin/../lib/gcc/arm-hisiv100-linux-uclibcgnueabi/4.4.1/libgcc.a(_arm_addsubdf3.o)
                              videoenc.o (__aeabi_ui2d)
/opt/hisi-linux-nptl/arm-hisiv100-linux/bin/../lib/gcc/arm-hisiv100-linux-uclibcgnueabi/4.4.1/libgcc.a(_arm_muldivdf3.o)
                              videoenc.o (__aeabi_dmul)
/opt/hisi-linux-nptl/arm-hisiv100-linux/bin/../lib/gcc/arm-hisiv100-linux-uclibcgnueabi/4.4.1/libgcc.a(_arm_fixunsdfsi.o)
                              videoenc.o (__aeabi_d2uiz)
/opt/hisi-linux-nptl/arm-hisiv100-linux/bin/../lib/gcc/arm-hisiv100-linux-uclibcgnueabi/4.4.1/libgcc.a(_dvmd_lnx.o)
                              /opt/hisi-linux-nptl/arm-hisiv100-linux/bin/../lib/gcc/arm-hisiv100-linux-uclibcgnueabi/4.4.1/libgcc.a(_udivsi3.o) (__aeabi_idiv0)
/opt/hisi-linux-nptl/arm-hisiv100-linux/bin/../lib/gcc/arm-hisiv100-linux-uclibcgnueabi/4.4.1/libgcc_eh.a(unwind-arm.o)
                              /opt/hisi-linux-nptl/arm-hisiv100-linux/bin/../target/usr/lib/libpthread.a(unwind.os) (_Unwind_GetCFA)
/opt/hisi-linux-nptl/arm-hisiv100-linux/bin/../lib/gcc/arm-hisiv100-linux-uclibcgnueabi/4.4.1/libgcc_eh.a(libunwind.o)
                              /opt/hisi-linux-nptl/arm-hisiv100-linux/bin/../lib/gcc/arm-hisiv100-linux-uclibcgnueabi/4.4.1/libgcc_eh.a(unwind-arm.o) (restore_core_regs)
/opt/hisi-linux-nptl/arm-hisiv100-linux/bin/../lib/gcc/arm-hisiv100-linux-uclibcgnueabi/4.4.1/libgcc_eh.a(pr-support.o)
                              /opt/hisi-linux-nptl/arm-hisiv100-linux/bin/../lib/gcc/arm-hisiv100-linux-uclibcgnueabi/4.4.1/libgcc_eh.a(unwind-arm.o) (__gnu_unwind_execute)
/opt/hisi-linux-nptl/arm-hisiv100-linux/bin/../lib/gcc/arm-hisiv100-linux-uclibcgnueabi/4.4.1/libgcc_eh.a(unwind-c.o)
                              /opt/hisi-linux-nptl/arm-hisiv100-linux/bin/../target/usr/lib/libpthread.a(pthread_once.os) (__gcc_personality_v0)
/opt/hisi-linux-nptl/arm-hisiv100-linux/bin/../target/usr/lib/libc.a(sigaction.os)
                              /opt/hisi-linux-nptl/arm-hisiv100-linux/bin/../target/usr/lib/libpthread.a(init.os) (__libc_sigaction)
/opt/hisi-linux-nptl/arm-hisiv100-linux/bin/../target/usr/lib/libc.a(mmap.os)
                              /opt/hisi-linux-nptl/arm-hisiv100-linux/bin/../target/usr/lib/libpthread.a(pthread_create.os) (mmap)
/opt/hisi-linux-nptl/arm-hisiv100-linux/bin/../target/usr/lib/libc.a(bsd-_setjmp.os)
                              /opt/hisi-linux-nptl/arm-hisiv100-linux/bin/../target/usr/lib/libpthread.a(pthread_create.os) (_setjmp)
/opt/hisi-linux-nptl/arm-hisiv100-linux/bin/../target/usr/lib/libc.a(sigrestorer.os)
                              /opt/hisi-linux-nptl/arm-hisiv100-linux/bin/../target/usr/lib/libc.a(sigaction.os) (__default_sa_restorer)
/opt/hisi-linux-nptl/arm-hisiv100-linux/bin/../target/usr/lib/libc.a(_exit.os)
                              ./lib/libmpi.a(mpi_venc.o) (_exit)
/opt/hisi-linux-nptl/arm-hisiv100-linux/bin/../target/usr/lib/libc.a(getpagesize.os)
                              /opt/hisi-linux-nptl/arm-hisiv100-linux/bin/../target/usr/lib/libpthread.a(pthread_create.os) (getpagesize)
/opt/hisi-linux-nptl/arm-hisiv100-linux/bin/../target/usr/lib/libc.a(getrlimit.os)
                              /opt/hisi-linux-nptl/arm-hisiv100-linux/bin/../target/usr/lib/libpthread.a(init.os) (getrlimit)
/opt/hisi-linux-nptl/arm-hisiv100-linux/bin/../target/usr/lib/libc.a(gettimeofday.os)
                              /opt/hisi-linux-nptl/arm-hisiv100-linux/bin/../target/usr/lib/libpthread.a(lowlevellock.os) (gettimeofday)
/opt/hisi-linux-nptl/arm-hisiv100-linux/bin/../target/usr/lib/libc.a(ioctl.os)
                              dvr/i2c/i2c.o (ioctl)
/opt/hisi-linux-nptl/arm-hisiv100-linux/bin/../target/usr/lib/libc.a(longjmp.os)
                              /opt/hisi-linux-nptl/arm-hisiv100-linux/bin/../target/usr/lib/libpthread.a(pt-longjmp.os) (__libc_longjmp)
/opt/hisi-linux-nptl/arm-hisiv100-linux/bin/../target/usr/lib/libc.a(madvise.os)
                              /opt/hisi-linux-nptl/arm-hisiv100-linux/bin/../target/usr/lib/libpthread.a(pthread_create.os) (madvise)
/opt/hisi-linux-nptl/arm-hisiv100-linux/bin/../target/usr/lib/libc.a(mprotect.os)
                              /opt/hisi-linux-nptl/arm-hisiv100-linux/bin/../target/usr/lib/libpthread.a(pthread_create.os) (mprotect)
/opt/hisi-linux-nptl/arm-hisiv100-linux/bin/../target/usr/lib/libc.a(munmap.os)
                              /opt/hisi-linux-nptl/arm-hisiv100-linux/bin/../target/usr/lib/libpthread.a(pthread_create.os) (munmap)
/opt/hisi-linux-nptl/arm-hisiv100-linux/bin/../target/usr/lib/libc.a(sched_getparam.os)
                              /opt/hisi-linux-nptl/arm-hisiv100-linux/bin/../target/usr/lib/libpthread.a(tpp.os) (sched_getparam)
/opt/hisi-linux-nptl/arm-hisiv100-linux/bin/../target/usr/lib/libc.a(sched_get_priority_max.os)
                              /opt/hisi-linux-nptl/arm-hisiv100-linux/bin/../target/usr/lib/libpthread.a(tpp.os) (sched_get_priority_max)
/opt/hisi-linux-nptl/arm-hisiv100-linux/bin/../target/usr/lib/libc.a(sched_get_priority_min.os)
                              /opt/hisi-linux-nptl/arm-hisiv100-linux/bin/../target/usr/lib/libpthread.a(tpp.os) (sched_get_priority_min)
/opt/hisi-linux-nptl/arm-hisiv100-linux/bin/../target/usr/lib/libc.a(sched_getscheduler.os)
                              /opt/hisi-linux-nptl/arm-hisiv100-linux/bin/../target/usr/lib/libpthread.a(tpp.os) (sched_getscheduler)
/opt/hisi-linux-nptl/arm-hisiv100-linux/bin/../target/usr/lib/libc.a(sched_setscheduler.os)
                              /opt/hisi-linux-nptl/arm-hisiv100-linux/bin/../target/usr/lib/libpthread.a(tpp.os) (sched_setscheduler)
/opt/hisi-linux-nptl/arm-hisiv100-linux/bin/../target/usr/lib/libc.a(sigprocmask.os)
                              /opt/hisi-linux-nptl/arm-hisiv100-linux/bin/../target/usr/lib/libc.a(longjmp.os) (__GI_sigprocmask)
/opt/hisi-linux-nptl/arm-hisiv100-linux/bin/../target/usr/lib/libc.a(ssp.os)
                              /opt/hisi-linux-nptl/arm-hisiv100-linux/bin/../target/usr/lib/libpthread.a(pthread_create.os) (__stack_chk_fail)
/opt/hisi-linux-nptl/arm-hisiv100-linux/bin/../target/usr/lib/libc.a(stat.os)
                              ./lib/libmpi.a(mpi_venc.o) (stat)
/opt/hisi-linux-nptl/arm-hisiv100-linux/bin/../target/usr/lib/libc.a(__syscall_rt_sigaction.os)
                              /opt/hisi-linux-nptl/arm-hisiv100-linux/bin/../target/usr/lib/libc.a(sigaction.os) (__syscall_rt_sigaction)
/opt/hisi-linux-nptl/arm-hisiv100-linux/bin/../target/usr/lib/libc.a(xstatconv.os)
                              /opt/hisi-linux-nptl/arm-hisiv100-linux/bin/../target/usr/lib/libc.a(stat.os) (__xstat_conv)
/opt/hisi-linux-nptl/arm-hisiv100-linux/bin/../target/usr/lib/libc.a(__assert.os)
                              main.o (__assert)
/opt/hisi-linux-nptl/arm-hisiv100-linux/bin/../target/usr/lib/libc.a(errno.os)
                              /opt/hisi-linux-nptl/arm-hisiv100-linux/bin/../target/usr/lib/libpthread.a(pthread_create.os) (errno)
/opt/hisi-linux-nptl/arm-hisiv100-linux/bin/../target/usr/lib/libc.a(__errno_location.os)
                              ./lib/libmpi.a(mpi_venc.o) (__errno_location)
/opt/hisi-linux-nptl/arm-hisiv100-linux/bin/../target/usr/lib/libc.a(syslog.os)
                              /opt/hisi-linux-nptl/arm-hisiv100-linux/bin/../target/usr/lib/libc.a(ssp.os) (__GI_closelog)
/opt/hisi-linux-nptl/arm-hisiv100-linux/bin/../target/usr/lib/libc.a(ctime.os)
                              /opt/hisi-linux-nptl/arm-hisiv100-linux/bin/../target/usr/lib/libc.a(syslog.os) (__GI_ctime)
/opt/hisi-linux-nptl/arm-hisiv100-linux/bin/../target/usr/lib/libc.a(localtime_r.os)
                              /opt/hisi-linux-nptl/arm-hisiv100-linux/bin/../target/usr/lib/libc.a(ctime.os) (__GI_localtime_r)
/opt/hisi-linux-nptl/arm-hisiv100-linux/bin/../target/usr/lib/libc.a(tzset.os)
                              /opt/hisi-linux-nptl/arm-hisiv100-linux/bin/../target/usr/lib/libc.a(localtime_r.os) (_time_tzset)
/opt/hisi-linux-nptl/arm-hisiv100-linux/bin/../target/usr/lib/libc.a(_time_localtime_tzi.os)
                              /opt/hisi-linux-nptl/arm-hisiv100-linux/bin/../target/usr/lib/libc.a(localtime_r.os) (__time_localtime_tzi)
/opt/hisi-linux-nptl/arm-hisiv100-linux/bin/../target/usr/lib/libc.a(fclose.os)
                              main.o (fclose)
/opt/hisi-linux-nptl/arm-hisiv100-linux/bin/../target/usr/lib/libc.a(fopen.os)
                              main.o (fopen)
/opt/hisi-linux-nptl/arm-hisiv100-linux/bin/../target/usr/lib/libc.a(puts.os)
                              main.o (puts)
/opt/hisi-linux-nptl/arm-hisiv100-linux/bin/../target/usr/lib/libc.a(printf.os)
                              main.o (printf)
/opt/hisi-linux-nptl/arm-hisiv100-linux/bin/../target/usr/lib/libc.a(fprintf.os)
                              /opt/hisi-linux-nptl/arm-hisiv100-linux/bin/../target/usr/lib/libc.a(__assert.os) (__GI_fprintf)
/opt/hisi-linux-nptl/arm-hisiv100-linux/bin/../target/usr/lib/libc.a(snprintf.os)
                              ./lib/libmpi.a(mpi_venc.o) (snprintf)
/opt/hisi-linux-nptl/arm-hisiv100-linux/bin/../target/usr/lib/libc.a(sprintf.os)
                              /opt/hisi-linux-nptl/arm-hisiv100-linux/bin/../target/usr/lib/libc.a(syslog.os) (__GI_sprintf)
/opt/hisi-linux-nptl/arm-hisiv100-linux/bin/../target/usr/lib/libc.a(vsnprintf.os)
                              /opt/hisi-linux-nptl/arm-hisiv100-linux/bin/../target/usr/lib/libc.a(syslog.os) (__GI_vsnprintf)
/opt/hisi-linux-nptl/arm-hisiv100-linux/bin/../target/usr/lib/libc.a(_fopen.os)
                              /opt/hisi-linux-nptl/arm-hisiv100-linux/bin/../target/usr/lib/libc.a(fopen.os) (_stdio_fopen)
/opt/hisi-linux-nptl/arm-hisiv100-linux/bin/../target/usr/lib/libc.a(_stdio.os)
                              /opt/hisi-linux-nptl/arm-hisiv100-linux/bin/../target/usr/lib/libc.a(_fopen.os) (_stdio_openlist_add_lock)
/opt/hisi-linux-nptl/arm-hisiv100-linux/bin/../target/usr/lib/libc.a(_wcommit.os)
                              /opt/hisi-linux-nptl/arm-hisiv100-linux/bin/../target/usr/lib/libc.a(_stdio.os) (__stdio_wcommit)
/opt/hisi-linux-nptl/arm-hisiv100-linux/bin/../target/usr/lib/libc.a(_cs_funcs.os)
                              /opt/hisi-linux-nptl/arm-hisiv100-linux/bin/../target/usr/lib/libc.a(_fopen.os) (_cs_close)
/opt/hisi-linux-nptl/arm-hisiv100-linux/bin/../target/usr/lib/libc.a(vfprintf.os)
                              /opt/hisi-linux-nptl/arm-hisiv100-linux/bin/../target/usr/lib/libc.a(printf.os) (__GI_vfprintf)
/opt/hisi-linux-nptl/arm-hisiv100-linux/bin/../target/usr/lib/libc.a(_vfprintf_internal.os)
                              /opt/hisi-linux-nptl/arm-hisiv100-linux/bin/../target/usr/lib/libc.a(vsnprintf.os) (_vfprintf_internal)
/opt/hisi-linux-nptl/arm-hisiv100-linux/bin/../target/usr/lib/libc.a(_ppfs_init.os)
                              /opt/hisi-linux-nptl/arm-hisiv100-linux/bin/../target/usr/lib/libc.a(_vfprintf_internal.os) (_ppfs_init)
/opt/hisi-linux-nptl/arm-hisiv100-linux/bin/../target/usr/lib/libc.a(_ppfs_prepargs.os)
                              /opt/hisi-linux-nptl/arm-hisiv100-linux/bin/../target/usr/lib/libc.a(_vfprintf_internal.os) (_ppfs_prepargs)
/opt/hisi-linux-nptl/arm-hisiv100-linux/bin/../target/usr/lib/libc.a(_ppfs_setargs.os)
                              /opt/hisi-linux-nptl/arm-hisiv100-linux/bin/../target/usr/lib/libc.a(_vfprintf_internal.os) (_ppfs_setargs)
/opt/hisi-linux-nptl/arm-hisiv100-linux/bin/../target/usr/lib/libc.a(_ppfs_parsespec.os)
                              /opt/hisi-linux-nptl/arm-hisiv100-linux/bin/../target/usr/lib/libc.a(_vfprintf_internal.os) (_ppfs_parsespec)
/opt/hisi-linux-nptl/arm-hisiv100-linux/bin/../target/usr/lib/libc.a(fwrite.os)
                              main.o (fwrite)
/opt/hisi-linux-nptl/arm-hisiv100-linux/bin/../target/usr/lib/libc.a(fflush_unlocked.os)
                              /opt/hisi-linux-nptl/arm-hisiv100-linux/bin/../target/usr/lib/libc.a(fclose.os) (_stdio_openlist_dec_use)
/opt/hisi-linux-nptl/arm-hisiv100-linux/bin/../target/usr/lib/libc.a(fputc_unlocked.os)
                              /opt/hisi-linux-nptl/arm-hisiv100-linux/bin/../target/usr/lib/libc.a(puts.os) (__GI___fputc_unlocked)
/opt/hisi-linux-nptl/arm-hisiv100-linux/bin/../target/usr/lib/libc.a(fputs_unlocked.os)
                              /opt/hisi-linux-nptl/arm-hisiv100-linux/bin/../target/usr/lib/libc.a(puts.os) (__GI_fputs_unlocked)
/opt/hisi-linux-nptl/arm-hisiv100-linux/bin/../target/usr/lib/libc.a(fwrite_unlocked.os)
                              /opt/hisi-linux-nptl/arm-hisiv100-linux/bin/../target/usr/lib/libc.a(fwrite.os) (__GI_fwrite_unlocked)
/opt/hisi-linux-nptl/arm-hisiv100-linux/bin/../target/usr/lib/libc.a(memcpy.os)
                              /opt/hisi-linux-nptl/arm-hisiv100-linux/bin/../target/usr/lib/libpthread.a(pthread_create.os) (memcpy)
/opt/hisi-linux-nptl/arm-hisiv100-linux/bin/../target/usr/lib/libc.a(memmove.os)
                              /opt/hisi-linux-nptl/arm-hisiv100-linux/bin/../target/usr/lib/libc.a(syslog.os) (__GI_memmove)
/opt/hisi-linux-nptl/arm-hisiv100-linux/bin/../target/usr/lib/libc.a(memset.os)
                              /opt/hisi-linux-nptl/arm-hisiv100-linux/bin/../target/usr/lib/libpthread.a(pthread_create.os) (memset)
/opt/hisi-linux-nptl/arm-hisiv100-linux/bin/../target/usr/lib/libc.a(strcmp.os)
                              /opt/hisi-linux-nptl/arm-hisiv100-linux/bin/../target/usr/lib/libc.a(tzset.os) (__GI_strcmp)
/opt/hisi-linux-nptl/arm-hisiv100-linux/bin/../target/usr/lib/libc.a(strlen.os)
                              /opt/hisi-linux-nptl/arm-hisiv100-linux/bin/../target/usr/lib/libpthread.a(unwind.os) (strlen)
/opt/hisi-linux-nptl/arm-hisiv100-linux/bin/../target/usr/lib/libc.a(mempcpy.os)
                              /opt/hisi-linux-nptl/arm-hisiv100-linux/bin/../target/usr/lib/libpthread.a(pthread_create.os) (mempcpy)
/opt/hisi-linux-nptl/arm-hisiv100-linux/bin/../target/usr/lib/libc.a(strchr.os)
                              /opt/hisi-linux-nptl/arm-hisiv100-linux/bin/../target/usr/lib/libc.a(syslog.os) (__GI_strchr)
/opt/hisi-linux-nptl/arm-hisiv100-linux/bin/../target/usr/lib/libc.a(strcpy.os)
                              /opt/hisi-linux-nptl/arm-hisiv100-linux/bin/../target/usr/lib/libc.a(tzset.os) (__GI_strcpy)
/opt/hisi-linux-nptl/arm-hisiv100-linux/bin/../target/usr/lib/libc.a(strncmp.os)
                              /opt/hisi-linux-nptl/arm-hisiv100-linux/bin/../target/usr/lib/libc.a(tzset.os) (__GI_strncmp)
/opt/hisi-linux-nptl/arm-hisiv100-linux/bin/../target/usr/lib/libc.a(strncpy.os)
                              /opt/hisi-linux-nptl/arm-hisiv100-linux/bin/../target/usr/lib/libc.a(tzset.os) (__GI_strncpy)
/opt/hisi-linux-nptl/arm-hisiv100-linux/bin/../target/usr/lib/libc.a(strnlen.os)
                              /opt/hisi-linux-nptl/arm-hisiv100-linux/bin/../target/usr/lib/libc.a(_time_localtime_tzi.os) (__GI_strnlen)
/opt/hisi-linux-nptl/arm-hisiv100-linux/bin/../target/usr/lib/libc.a(__glibc_strerror_r.os)
                              /opt/hisi-linux-nptl/arm-hisiv100-linux/bin/../target/usr/lib/libc.a(_vfprintf_internal.os) (__GI___glibc_strerror_r)
/opt/hisi-linux-nptl/arm-hisiv100-linux/bin/../target/usr/lib/libc.a(strerror.os)
                              ./lib/libmpi.a(mpi_venc.o) (strerror)
/opt/hisi-linux-nptl/arm-hisiv100-linux/bin/../target/usr/lib/libc.a(__xpg_strerror_r.os)
                              /opt/hisi-linux-nptl/arm-hisiv100-linux/bin/../target/usr/lib/libc.a(__glibc_strerror_r.os) (__GI___xpg_strerror_r)
/opt/hisi-linux-nptl/arm-hisiv100-linux/bin/../target/usr/lib/libc.a(isatty.os)
                              /opt/hisi-linux-nptl/arm-hisiv100-linux/bin/../target/usr/lib/libc.a(_fopen.os) (__GI_isatty)
/opt/hisi-linux-nptl/arm-hisiv100-linux/bin/../target/usr/lib/libc.a(tcgetattr.os)
                              /opt/hisi-linux-nptl/arm-hisiv100-linux/bin/../target/usr/lib/libc.a(isatty.os) (__GI_tcgetattr)
/opt/hisi-linux-nptl/arm-hisiv100-linux/bin/../target/usr/lib/libc.a(res_init.os)
                              /opt/hisi-linux-nptl/arm-hisiv100-linux/bin/../target/usr/lib/libpthread.a(pthread_create.os) (__resp)
/opt/hisi-linux-nptl/arm-hisiv100-linux/bin/../target/usr/lib/libc.a(connect.os)
                              /opt/hisi-linux-nptl/arm-hisiv100-linux/bin/../target/usr/lib/libc.a(syslog.os) (__GI_connect)
/opt/hisi-linux-nptl/arm-hisiv100-linux/bin/../target/usr/lib/libc.a(send.os)
                              /opt/hisi-linux-nptl/arm-hisiv100-linux/bin/../target/usr/lib/libc.a(syslog.os) (__GI_send)
/opt/hisi-linux-nptl/arm-hisiv100-linux/bin/../target/usr/lib/libc.a(socket.os)
                              /opt/hisi-linux-nptl/arm-hisiv100-linux/bin/../target/usr/lib/libc.a(syslog.os) (__GI_socket)
/opt/hisi-linux-nptl/arm-hisiv100-linux/bin/../target/usr/lib/libc.a(malloc.os)
                              main.o (malloc)
/opt/hisi-linux-nptl/arm-hisiv100-linux/bin/../target/usr/lib/libc.a(calloc.os)
                              /opt/hisi-linux-nptl/arm-hisiv100-linux/bin/../target/usr/lib/libpthread.a(pthread_setspecific.os) (calloc)
/opt/hisi-linux-nptl/arm-hisiv100-linux/bin/../target/usr/lib/libc.a(free.os)
                              /opt/hisi-linux-nptl/arm-hisiv100-linux/bin/../target/usr/lib/libc.a(malloc.os) (__malloc_consolidate)
/opt/hisi-linux-nptl/arm-hisiv100-linux/bin/../target/usr/lib/libc.a(abort.os)
                              /opt/hisi-linux-nptl/arm-hisiv100-linux/bin/../target/usr/lib/libc.a(__assert.os) (__GI_abort)
/opt/hisi-linux-nptl/arm-hisiv100-linux/bin/../target/usr/lib/libc.a(getenv.os)
                              /opt/hisi-linux-nptl/arm-hisiv100-linux/bin/../target/usr/lib/libc.a(tzset.os) (__GI_getenv)
/opt/hisi-linux-nptl/arm-hisiv100-linux/bin/../target/usr/lib/libc.a(exit.os)
                              /opt/hisi-linux-nptl/arm-hisiv100-linux/bin/../target/usr/lib/libpthread.a(pthread_create.os) (exit)
/opt/hisi-linux-nptl/arm-hisiv100-linux/bin/../target/usr/lib/libc.a(sysconf.os)
                              /opt/hisi-linux-nptl/arm-hisiv100-linux/bin/../target/usr/lib/libc.a(free.os) (__GI_sysconf)
/opt/hisi-linux-nptl/arm-hisiv100-linux/bin/../target/usr/lib/libc.a(clone.os)
                              /opt/hisi-linux-nptl/arm-hisiv100-linux/bin/../target/usr/lib/libpthread.a(pthread_create.os) (clone)
/opt/hisi-linux-nptl/arm-hisiv100-linux/bin/../target/usr/lib/libc.a(libc_pthread_init.os)
                              /opt/hisi-linux-nptl/arm-hisiv100-linux/bin/../target/usr/lib/libpthread.a(init.os) (__libc_pthread_init)
/opt/hisi-linux-nptl/arm-hisiv100-linux/bin/../target/usr/lib/libc.a(libc_multiple_threads.os)
                              /opt/hisi-linux-nptl/arm-hisiv100-linux/bin/../target/usr/lib/libc.a(ioctl.os) (__libc_multiple_threads)
/opt/hisi-linux-nptl/arm-hisiv100-linux/bin/../target/usr/lib/libc.a(register-atfork.os)
                              /opt/hisi-linux-nptl/arm-hisiv100-linux/bin/../target/usr/lib/libc.a(libc_pthread_init.os) (__GI___register_atfork)
/opt/hisi-linux-nptl/arm-hisiv100-linux/bin/../target/usr/lib/libc.a(getpid.os)
                              /opt/hisi-linux-nptl/arm-hisiv100-linux/bin/../target/usr/lib/libc.a(ssp.os) (__GI_getpid)
/opt/hisi-linux-nptl/arm-hisiv100-linux/bin/../target/usr/lib/libc.a(raise.os)
                              /opt/hisi-linux-nptl/arm-hisiv100-linux/bin/../target/usr/lib/libc.a(abort.os) (__GI_raise)
/opt/hisi-linux-nptl/arm-hisiv100-linux/bin/../target/usr/lib/libc.a(jmp-unwind.os)
                              /opt/hisi-linux-nptl/arm-hisiv100-linux/bin/../target/usr/lib/libc.a(longjmp.os) (_longjmp_unwind)
/opt/hisi-linux-nptl/arm-hisiv100-linux/bin/../target/usr/lib/libc.a(close.os)
                              ./lib/libmpi.a(mpi_venc.o) (close)
/opt/hisi-linux-nptl/arm-hisiv100-linux/bin/../target/usr/lib/libc.a(open.os)
                              dvr/i2c/i2c.o (open)
/opt/hisi-linux-nptl/arm-hisiv100-linux/bin/../target/usr/lib/libc.a(write.os)
                              /opt/hisi-linux-nptl/arm-hisiv100-linux/bin/../target/usr/lib/libc.a(ssp.os) (__GI_write)
/opt/hisi-linux-nptl/arm-hisiv100-linux/bin/../target/usr/lib/libc.a(read.os)
                              /opt/hisi-linux-nptl/arm-hisiv100-linux/bin/../target/usr/lib/libc.a(tzset.os) (__GI_read)
/opt/hisi-linux-nptl/arm-hisiv100-linux/bin/../target/usr/lib/libc.a(libc-cancellation.os)
                              /opt/hisi-linux-nptl/arm-hisiv100-linux/bin/../target/usr/lib/libc.a(ioctl.os) (__libc_disable_asynccancel)
/opt/hisi-linux-nptl/arm-hisiv100-linux/bin/../target/usr/lib/libc.a(libc-tls.os)
                              /opt/hisi-linux-nptl/arm-hisiv100-linux/bin/../target/usr/lib/libc.a(res_init.os) (__tls_get_addr)
/opt/hisi-linux-nptl/arm-hisiv100-linux/bin/../target/usr/lib/libc.a(dl-tls.os)
                              /opt/hisi-linux-nptl/arm-hisiv100-linux/bin/../target/usr/lib/libpthread.a(init.os) (_dl_get_tls_static_info)
/opt/hisi-linux-nptl/arm-hisiv100-linux/bin/../target/usr/lib/libc.a(dl-support.os)
                              /opt/hisi-linux-nptl/arm-hisiv100-linux/bin/../target/usr/lib/libc.a(libc-tls.os) (_dl_phdr)
/opt/hisi-linux-nptl/arm-hisiv100-linux/bin/../target/usr/lib/libc.a(__uClibc_main.os)
                              /opt/hisi-linux-nptl/arm-hisiv100-linux/bin/../target/usr/lib/libc.a(exit.os) (__GI___uClibc_fini)
/opt/hisi-linux-nptl/arm-hisiv100-linux/bin/../target/usr/lib/libc.a(__syscall_error.os)
                              /opt/hisi-linux-nptl/arm-hisiv100-linux/bin/../target/usr/lib/libc.a(clone.os) (__syscall_error)
/opt/hisi-linux-nptl/arm-hisiv100-linux/bin/../target/usr/lib/libc.a(__longjmp.os)
                              /opt/hisi-linux-nptl/arm-hisiv100-linux/bin/../target/usr/lib/libc.a(longjmp.os) (__GI___longjmp)
/opt/hisi-linux-nptl/arm-hisiv100-linux/bin/../target/usr/lib/libc.a(setjmp.os)
                              /opt/hisi-linux-nptl/arm-hisiv100-linux/bin/../target/usr/lib/libc.a(bsd-_setjmp.os) (__sigsetjmp)
/opt/hisi-linux-nptl/arm-hisiv100-linux/bin/../target/usr/lib/libc.a(getdtablesize.os)
                              /opt/hisi-linux-nptl/arm-hisiv100-linux/bin/../target/usr/lib/libc.a(sysconf.os) (__GI_getdtablesize)
/opt/hisi-linux-nptl/arm-hisiv100-linux/bin/../target/usr/lib/libc.a(getegid.os)
                              /opt/hisi-linux-nptl/arm-hisiv100-linux/bin/../target/usr/lib/libc.a(__uClibc_main.os) (__GI_getegid)
/opt/hisi-linux-nptl/arm-hisiv100-linux/bin/../target/usr/lib/libc.a(geteuid.os)
                              /opt/hisi-linux-nptl/arm-hisiv100-linux/bin/../target/usr/lib/libc.a(__uClibc_main.os) (__GI_geteuid)
/opt/hisi-linux-nptl/arm-hisiv100-linux/bin/../target/usr/lib/libc.a(getgid.os)
                              /opt/hisi-linux-nptl/arm-hisiv100-linux/bin/../target/usr/lib/libc.a(__uClibc_main.os) (__GI_getgid)
/opt/hisi-linux-nptl/arm-hisiv100-linux/bin/../target/usr/lib/libc.a(getuid.os)
                              /opt/hisi-linux-nptl/arm-hisiv100-linux/bin/../target/usr/lib/libc.a(__uClibc_main.os) (__GI_getuid)
/opt/hisi-linux-nptl/arm-hisiv100-linux/bin/../target/usr/lib/libc.a(kill.os)
                              /opt/hisi-linux-nptl/arm-hisiv100-linux/bin/../target/usr/lib/libc.a(ssp.os) (__GI_kill)
/opt/hisi-linux-nptl/arm-hisiv100-linux/bin/../target/usr/lib/libc.a(lseek.os)
                              /opt/hisi-linux-nptl/arm-hisiv100-linux/bin/../target/usr/lib/libc.a(tzset.os) (__GI_lseek)
/opt/hisi-linux-nptl/arm-hisiv100-linux/bin/../target/usr/lib/libc.a(sbrk.os)
                              /opt/hisi-linux-nptl/arm-hisiv100-linux/bin/../target/usr/lib/libc.a(malloc.os) (__GI_sbrk)
/opt/hisi-linux-nptl/arm-hisiv100-linux/bin/../target/usr/lib/libc.a(__syscall_fcntl.os)
                              /opt/hisi-linux-nptl/arm-hisiv100-linux/bin/../target/usr/lib/libc.a(syslog.os) (__GI_fcntl)
/opt/hisi-linux-nptl/arm-hisiv100-linux/bin/../target/usr/lib/libc.a(time.os)
                              /opt/hisi-linux-nptl/arm-hisiv100-linux/bin/../target/usr/lib/libc.a(syslog.os) (__GI_time)
/opt/hisi-linux-nptl/arm-hisiv100-linux/bin/../target/usr/lib/libc.a(llseek.os)
                              /opt/hisi-linux-nptl/arm-hisiv100-linux/bin/../target/usr/lib/libc.a(_cs_funcs.os) (__GI_lseek64)
/opt/hisi-linux-nptl/arm-hisiv100-linux/bin/../target/usr/lib/libc.a(__C_ctype_b.os)
                              /opt/hisi-linux-nptl/arm-hisiv100-linux/bin/../target/usr/lib/libc.a(tzset.os) (__GI___ctype_b)
/opt/hisi-linux-nptl/arm-hisiv100-linux/bin/../target/usr/lib/libc.a(closedir.os)
                              /opt/hisi-linux-nptl/arm-hisiv100-linux/bin/../target/usr/lib/libc.a(sysconf.os) (__GI_closedir)
/opt/hisi-linux-nptl/arm-hisiv100-linux/bin/../target/usr/lib/libc.a(opendir.os)
                              /opt/hisi-linux-nptl/arm-hisiv100-linux/bin/../target/usr/lib/libc.a(sysconf.os) (__GI_opendir)
/opt/hisi-linux-nptl/arm-hisiv100-linux/bin/../target/usr/lib/libc.a(readdir64.os)
                              /opt/hisi-linux-nptl/arm-hisiv100-linux/bin/../target/usr/lib/libc.a(sysconf.os) (__GI_readdir64)
/opt/hisi-linux-nptl/arm-hisiv100-linux/bin/../target/usr/lib/libc.a(parse_config.os)
                              /opt/hisi-linux-nptl/arm-hisiv100-linux/bin/../target/usr/lib/libc.a(sysconf.os) (__GI_config_read)
/opt/hisi-linux-nptl/arm-hisiv100-linux/bin/../target/usr/lib/libc.a(_locale_init.os)
                              /opt/hisi-linux-nptl/arm-hisiv100-linux/bin/../target/usr/lib/libc.a(_ppfs_init.os) (__global_locale)
/opt/hisi-linux-nptl/arm-hisiv100-linux/bin/../target/usr/lib/libc.a(__locale_mbrtowc_l.os)
                              /opt/hisi-linux-nptl/arm-hisiv100-linux/bin/../target/usr/lib/libc.a(_locale_init.os) (__locale_mbrtowc_l)
/opt/hisi-linux-nptl/arm-hisiv100-linux/bin/../target/usr/lib/libc.a(asctime.os)
                              /opt/hisi-linux-nptl/arm-hisiv100-linux/bin/../target/usr/lib/libc.a(ctime.os) (__GI_asctime)
/opt/hisi-linux-nptl/arm-hisiv100-linux/bin/../target/usr/lib/libc.a(asctime_r.os)
                              /opt/hisi-linux-nptl/arm-hisiv100-linux/bin/../target/usr/lib/libc.a(asctime.os) (__GI_asctime_r)
/opt/hisi-linux-nptl/arm-hisiv100-linux/bin/../target/usr/lib/libc.a(_time_t2tm.os)
                              /opt/hisi-linux-nptl/arm-hisiv100-linux/bin/../target/usr/lib/libc.a(_time_localtime_tzi.os) (_time_t2tm)
/opt/hisi-linux-nptl/arm-hisiv100-linux/bin/../target/usr/lib/libc.a(wcrtomb.os)
                              /opt/hisi-linux-nptl/arm-hisiv100-linux/bin/../target/usr/lib/libc.a(_vfprintf_internal.os) (__GI_wcrtomb)
/opt/hisi-linux-nptl/arm-hisiv100-linux/bin/../target/usr/lib/libc.a(mbsrtowcs.os)
                              /opt/hisi-linux-nptl/arm-hisiv100-linux/bin/../target/usr/lib/libc.a(_ppfs_init.os) (__GI_mbsrtowcs)
/opt/hisi-linux-nptl/arm-hisiv100-linux/bin/../target/usr/lib/libc.a(wcsrtombs.os)
                              /opt/hisi-linux-nptl/arm-hisiv100-linux/bin/../target/usr/lib/libc.a(_vfprintf_internal.os) (__GI_wcsrtombs)
/opt/hisi-linux-nptl/arm-hisiv100-linux/bin/../target/usr/lib/libc.a(_wchar_utf8sntowcs.os)
                              /opt/hisi-linux-nptl/arm-hisiv100-linux/bin/../target/usr/lib/libc.a(__locale_mbrtowc_l.os) (_wchar_utf8sntowcs)
/opt/hisi-linux-nptl/arm-hisiv100-linux/bin/../target/usr/lib/libc.a(mbsnrtowcs.os)
                              /opt/hisi-linux-nptl/arm-hisiv100-linux/bin/../target/usr/lib/libc.a(mbsrtowcs.os) (__GI_mbsnrtowcs)
/opt/hisi-linux-nptl/arm-hisiv100-linux/bin/../target/usr/lib/libc.a(wcsnrtombs.os)
                              /opt/hisi-linux-nptl/arm-hisiv100-linux/bin/../target/usr/lib/libc.a(wcrtomb.os) (__GI_wcsnrtombs)
/opt/hisi-linux-nptl/arm-hisiv100-linux/bin/../target/usr/lib/libc.a(_WRITE.os)
                              /opt/hisi-linux-nptl/arm-hisiv100-linux/bin/../target/usr/lib/libc.a(_wcommit.os) (__stdio_WRITE)
/opt/hisi-linux-nptl/arm-hisiv100-linux/bin/../target/usr/lib/libc.a(_fwrite.os)
                              /opt/hisi-linux-nptl/arm-hisiv100-linux/bin/../target/usr/lib/libc.a(_vfprintf_internal.os) (__stdio_fwrite)
/opt/hisi-linux-nptl/arm-hisiv100-linux/bin/../target/usr/lib/libc.a(_trans2w.os)
                              /opt/hisi-linux-nptl/arm-hisiv100-linux/bin/../target/usr/lib/libc.a(vfprintf.os) (__stdio_trans2w_o)
/opt/hisi-linux-nptl/arm-hisiv100-linux/bin/../target/usr/lib/libc.a(_load_inttype.os)
                              /opt/hisi-linux-nptl/arm-hisiv100-linux/bin/../target/usr/lib/libc.a(_vfprintf_internal.os) (_load_inttype)
/opt/hisi-linux-nptl/arm-hisiv100-linux/bin/../target/usr/lib/libc.a(_store_inttype.os)
                              /opt/hisi-linux-nptl/arm-hisiv100-linux/bin/../target/usr/lib/libc.a(_vfprintf_internal.os) (_store_inttype)
/opt/hisi-linux-nptl/arm-hisiv100-linux/bin/../target/usr/lib/libc.a(_uintmaxtostr.os)
                              /opt/hisi-linux-nptl/arm-hisiv100-linux/bin/../target/usr/lib/libc.a(_vfprintf_internal.os) (_uintmaxtostr)
/opt/hisi-linux-nptl/arm-hisiv100-linux/bin/../target/usr/lib/libc.a(_fpmaxtostr.os)
                              /opt/hisi-linux-nptl/arm-hisiv100-linux/bin/../target/usr/lib/libc.a(_vfprintf_internal.os) (_fpmaxtostr)
/opt/hisi-linux-nptl/arm-hisiv100-linux/bin/../target/usr/lib/libc.a(fgetc.os)
                              /opt/hisi-linux-nptl/arm-hisiv100-linux/bin/../target/usr/lib/libc.a(parse_config.os) (__GI_fgetc)
/opt/hisi-linux-nptl/arm-hisiv100-linux/bin/../target/usr/lib/libc.a(fgets.os)
                              /opt/hisi-linux-nptl/arm-hisiv100-linux/bin/../target/usr/lib/libc.a(parse_config.os) (__GI_fgets)
/opt/hisi-linux-nptl/arm-hisiv100-linux/bin/../target/usr/lib/libc.a(fgetc_unlocked.os)
                              /opt/hisi-linux-nptl/arm-hisiv100-linux/bin/../target/usr/lib/libc.a(parse_config.os) (__GI___fgetc_unlocked)
/opt/hisi-linux-nptl/arm-hisiv100-linux/bin/../target/usr/lib/libc.a(fgets_unlocked.os)
                              /opt/hisi-linux-nptl/arm-hisiv100-linux/bin/../target/usr/lib/libc.a(fgets.os) (__GI_fgets_unlocked)
/opt/hisi-linux-nptl/arm-hisiv100-linux/bin/../target/usr/lib/libc.a(memcmp.os)
                              /opt/hisi-linux-nptl/arm-hisiv100-linux/bin/../target/usr/lib/libc.a(getenv.os) (__GI_memcmp)
/opt/hisi-linux-nptl/arm-hisiv100-linux/bin/../target/usr/lib/libc.a(_memcpy.os)
                              /opt/hisi-linux-nptl/arm-hisiv100-linux/bin/../target/usr/lib/libc.a(memcpy.os) (_memcpy)
/opt/hisi-linux-nptl/arm-hisiv100-linux/bin/../target/usr/lib/libc.a(memchr.os)
                              /opt/hisi-linux-nptl/arm-hisiv100-linux/bin/../target/usr/lib/libc.a(_fwrite.os) (__GI_memchr)
/opt/hisi-linux-nptl/arm-hisiv100-linux/bin/../target/usr/lib/libc.a(memrchr.os)
                              /opt/hisi-linux-nptl/arm-hisiv100-linux/bin/../target/usr/lib/libc.a(_fwrite.os) (__GI_memrchr)
/opt/hisi-linux-nptl/arm-hisiv100-linux/bin/../target/usr/lib/libc.a(strchrnul.os)
                              /opt/hisi-linux-nptl/arm-hisiv100-linux/bin/../target/usr/lib/libc.a(parse_config.os) (__GI_strchrnul)
/opt/hisi-linux-nptl/arm-hisiv100-linux/bin/../target/usr/lib/libc.a(strcspn.os)
                              /opt/hisi-linux-nptl/arm-hisiv100-linux/bin/../target/usr/lib/libc.a(parse_config.os) (__GI_strcspn)
/opt/hisi-linux-nptl/arm-hisiv100-linux/bin/../target/usr/lib/libc.a(strspn.os)
                              /opt/hisi-linux-nptl/arm-hisiv100-linux/bin/../target/usr/lib/libc.a(parse_config.os) (__GI_strspn)
/opt/hisi-linux-nptl/arm-hisiv100-linux/bin/../target/usr/lib/libc.a(_string_syserrmsgs.os)
                              /opt/hisi-linux-nptl/arm-hisiv100-linux/bin/../target/usr/lib/libc.a(__xpg_strerror_r.os) (_string_syserrmsgs)
/opt/hisi-linux-nptl/arm-hisiv100-linux/bin/../target/usr/lib/libc.a(opennameservers.os)
                              /opt/hisi-linux-nptl/arm-hisiv100-linux/bin/../target/usr/lib/libc.a(res_init.os) (__open_nameservers)
/opt/hisi-linux-nptl/arm-hisiv100-linux/bin/../target/usr/lib/libc.a(closenameservers.os)
                              /opt/hisi-linux-nptl/arm-hisiv100-linux/bin/../target/usr/lib/libc.a(res_init.os) (__close_nameservers)
/opt/hisi-linux-nptl/arm-hisiv100-linux/bin/../target/usr/lib/libc.a(sigjmp.os)
                              /opt/hisi-linux-nptl/arm-hisiv100-linux/bin/../target/usr/lib/libc.a(setjmp.os) (__sigjmp_save)
/opt/hisi-linux-nptl/arm-hisiv100-linux/bin/../target/usr/lib/libc.a(realloc.os)
                              /opt/hisi-linux-nptl/arm-hisiv100-linux/bin/../target/usr/lib/libc.a(parse_config.os) (realloc)
/opt/hisi-linux-nptl/arm-hisiv100-linux/bin/../target/usr/lib/libc.a(atol.os)
                              /opt/hisi-linux-nptl/arm-hisiv100-linux/bin/../target/usr/lib/libc.a(opennameservers.os) (__GI_atoi)
/opt/hisi-linux-nptl/arm-hisiv100-linux/bin/../target/usr/lib/libc.a(strtol.os)
                              /opt/hisi-linux-nptl/arm-hisiv100-linux/bin/../target/usr/lib/libc.a(atol.os) (__GI_strtol)
/opt/hisi-linux-nptl/arm-hisiv100-linux/bin/../target/usr/lib/libc.a(_stdlib_strto_l.os)
                              /opt/hisi-linux-nptl/arm-hisiv100-linux/bin/../target/usr/lib/libc.a(strtol.os) (_stdlib_strto_l)
/opt/hisi-linux-nptl/arm-hisiv100-linux/bin/../target/usr/lib/libc.a(fork.os)
                              /opt/hisi-linux-nptl/arm-hisiv100-linux/bin/../target/usr/lib/libc.a(register-atfork.os) (__fork_handlers)
/opt/hisi-linux-nptl/arm-hisiv100-linux/bin/../target/usr/lib/libc.a(locale_data.os)
                              /opt/hisi-linux-nptl/arm-hisiv100-linux/bin/../target/usr/lib/libc.a(_locale_init.os) (__locale_mmap)
/opt/hisi-linux-nptl/arm-hisiv100-linux/bin/../target/usr/lib/libc.a(brk.os)
                              /opt/hisi-linux-nptl/arm-hisiv100-linux/bin/../target/usr/lib/libc.a(sbrk.os) (__GI_brk)
/opt/hisi-linux-nptl/arm-hisiv100-linux/bin/../target/usr/lib/libc.a(fstat.os)
                              /opt/hisi-linux-nptl/arm-hisiv100-linux/bin/../target/usr/lib/libc.a(opendir.os) (__GI_fstat)
/opt/hisi-linux-nptl/arm-hisiv100-linux/bin/../target/usr/lib/libc.a(gethostname.os)
                              /opt/hisi-linux-nptl/arm-hisiv100-linux/bin/../target/usr/lib/libc.a(opennameservers.os) (__GI_gethostname)
/opt/hisi-linux-nptl/arm-hisiv100-linux/bin/../target/usr/lib/libc.a(mremap.os)
                              /opt/hisi-linux-nptl/arm-hisiv100-linux/bin/../target/usr/lib/libc.a(realloc.os) (__GI_mremap)
/opt/hisi-linux-nptl/arm-hisiv100-linux/bin/../target/usr/lib/libc.a(uname.os)
                              /opt/hisi-linux-nptl/arm-hisiv100-linux/bin/../target/usr/lib/libc.a(gethostname.os) (__GI_uname)
/opt/hisi-linux-nptl/arm-hisiv100-linux/bin/../target/usr/lib/libc.a(getdents64.os)
                              /opt/hisi-linux-nptl/arm-hisiv100-linux/bin/../target/usr/lib/libc.a(readdir64.os) (__getdents64)
/opt/hisi-linux-nptl/arm-hisiv100-linux/bin/../target/usr/lib/libc.a(__C_ctype_tolower.os)
                              /opt/hisi-linux-nptl/arm-hisiv100-linux/bin/../target/usr/lib/libc.a(_locale_init.os) (__GI___C_ctype_tolower)
/opt/hisi-linux-nptl/arm-hisiv100-linux/bin/../target/usr/lib/libc.a(__C_ctype_toupper.os)
                              /opt/hisi-linux-nptl/arm-hisiv100-linux/bin/../target/usr/lib/libc.a(_locale_init.os) (__GI___C_ctype_toupper)
/opt/hisi-linux-nptl/arm-hisiv100-linux/bin/../target/usr/lib/libc.a(_wchar_wcsntoutf8s.os)
                              /opt/hisi-linux-nptl/arm-hisiv100-linux/bin/../target/usr/lib/libc.a(wcsnrtombs.os) (_wchar_wcsntoutf8s)
/opt/hisi-linux-nptl/arm-hisiv100-linux/bin/../target/usr/lib/libc.a(fseeko.os)
                              /opt/hisi-linux-nptl/arm-hisiv100-linux/bin/../target/usr/lib/libc.a(_trans2w.os) (__GI_fseek)
/opt/hisi-linux-nptl/arm-hisiv100-linux/bin/../target/usr/lib/libc.a(fseeko64.os)
                              /opt/hisi-linux-nptl/arm-hisiv100-linux/bin/../target/usr/lib/libc.a(fseeko.os) (__GI_fseeko64)
/opt/hisi-linux-nptl/arm-hisiv100-linux/bin/../target/usr/lib/libc.a(_READ.os)
                              /opt/hisi-linux-nptl/arm-hisiv100-linux/bin/../target/usr/lib/libc.a(fgetc_unlocked.os) (__stdio_READ)
/opt/hisi-linux-nptl/arm-hisiv100-linux/bin/../target/usr/lib/libc.a(_adjust_pos.os)
                              /opt/hisi-linux-nptl/arm-hisiv100-linux/bin/../target/usr/lib/libc.a(fseeko64.os) (__stdio_adjust_position)
/opt/hisi-linux-nptl/arm-hisiv100-linux/bin/../target/usr/lib/libc.a(_rfill.os)
                              /opt/hisi-linux-nptl/arm-hisiv100-linux/bin/../target/usr/lib/libc.a(fgetc_unlocked.os) (__stdio_rfill)
/opt/hisi-linux-nptl/arm-hisiv100-linux/bin/../target/usr/lib/libc.a(_trans2r.os)
                              /opt/hisi-linux-nptl/arm-hisiv100-linux/bin/../target/usr/lib/libc.a(fgetc_unlocked.os) (__stdio_trans2r_o)
/opt/hisi-linux-nptl/arm-hisiv100-linux/bin/../target/usr/lib/libc.a(strdup.os)
                              /opt/hisi-linux-nptl/arm-hisiv100-linux/bin/../target/usr/lib/libc.a(opennameservers.os) (__GI_strdup)
/opt/hisi-linux-nptl/arm-hisiv100-linux/bin/../target/usr/lib/libc.a(ntop.os)
                              /opt/hisi-linux-nptl/arm-hisiv100-linux/bin/../target/usr/lib/libc.a(opennameservers.os) (__GI_inet_pton)
/opt/hisi-linux-nptl/arm-hisiv100-linux/bin/../lib/gcc/arm-hisiv100-linux-uclibcgnueabi/4.4.1/libgcc.a(_divsi3.o)
                              /opt/hisi-linux-nptl/arm-hisiv100-linux/bin/../target/usr/lib/libc.a(_time_localtime_tzi.os) (__aeabi_idiv)
/opt/hisi-linux-nptl/arm-hisiv100-linux/bin/../lib/gcc/arm-hisiv100-linux-uclibcgnueabi/4.4.1/libgcc.a(_arm_cmpdf2.o)
                              /opt/hisi-linux-nptl/arm-hisiv100-linux/bin/../target/usr/lib/libc.a(_fpmaxtostr.os) (__aeabi_dcmpeq)

Allocating common symbols
Common symbol       size              file

__is_smp            0x4               /opt/hisi-linux-nptl/arm-hisiv100-linux/bin/../target/usr/lib/libpthread.a(vars.os)
__res_sync          0x4               /opt/hisi-linux-nptl/arm-hisiv100-linux/bin/../target/usr/lib/libc.a(opennameservers.os)
__static_tls_align_m1
                    0x4               /opt/hisi-linux-nptl/arm-hisiv100-linux/bin/../target/usr/lib/libpthread.a(init.os)
__global_locale_data
                    0xb1c             /opt/hisi-linux-nptl/arm-hisiv100-linux/bin/../target/usr/lib/libc.a(_locale_init.os)
__static_tls_size   0x4               /opt/hisi-linux-nptl/arm-hisiv100-linux/bin/../target/usr/lib/libpthread.a(init.os)
__set_robust_list_avail
                    0x4               /opt/hisi-linux-nptl/arm-hisiv100-linux/bin/../target/usr/lib/libpthread.a(init.os)
__pthread_debug     0x4               /opt/hisi-linux-nptl/arm-hisiv100-linux/bin/../target/usr/lib/libpthread.a(pthread_create.os)
__stack_chk_guard   0x4               /opt/hisi-linux-nptl/arm-hisiv100-linux/bin/../target/usr/lib/libc.a(__uClibc_main.os)
__pthread_multiple_threads
                    0x4               /opt/hisi-linux-nptl/arm-hisiv100-linux/bin/../target/usr/lib/libpthread.a(vars.os)
__libc_multiple_threads_ptr
                    0x4               /opt/hisi-linux-nptl/arm-hisiv100-linux/bin/../target/usr/lib/libpthread.a(pthread_create.os)
_dl_tls_static_used
                    0x4               /opt/hisi-linux-nptl/arm-hisiv100-linux/bin/../target/usr/lib/libc.a(libc-tls.os)
__xidcmd            0x4               /opt/hisi-linux-nptl/arm-hisiv100-linux/bin/../target/usr/lib/libpthread.a(init.os)
__searchdomain      0x4               /opt/hisi-linux-nptl/arm-hisiv100-linux/bin/../target/usr/lib/libc.a(opennameservers.os)
_time_tzinfo        0x30              /opt/hisi-linux-nptl/arm-hisiv100-linux/bin/../target/usr/lib/libc.a(tzset.os)
_dl_tls_static_align
                    0x4               /opt/hisi-linux-nptl/arm-hisiv100-linux/bin/../target/usr/lib/libc.a(libc-tls.os)
_dl_tls_max_dtv_idx
                    0x4               /opt/hisi-linux-nptl/arm-hisiv100-linux/bin/../target/usr/lib/libc.a(libc-tls.os)
__malloc_state      0x378             /opt/hisi-linux-nptl/arm-hisiv100-linux/bin/../target/usr/lib/libc.a(malloc.os)
__fork_generation_pointer
                    0x4               /opt/hisi-linux-nptl/arm-hisiv100-linux/bin/../target/usr/lib/libc.a(fork.os)
_dl_tls_static_size
                    0x4               /opt/hisi-linux-nptl/arm-hisiv100-linux/bin/../target/usr/lib/libc.a(libc-tls.os)
_custom_printf_arginfo
                    0x28              /opt/hisi-linux-nptl/arm-hisiv100-linux/bin/../target/usr/lib/libc.a(_ppfs_parsespec.os)
_dl_tls_dtv_slotinfo_list
                    0x4               /opt/hisi-linux-nptl/arm-hisiv100-linux/bin/../target/usr/lib/libc.a(libc-tls.os)
_dl_tls_dtv_gaps    0x1               /opt/hisi-linux-nptl/arm-hisiv100-linux/bin/../target/usr/lib/libc.a(libc-tls.os)
_dl_phdr            0x4               /opt/hisi-linux-nptl/arm-hisiv100-linux/bin/../target/usr/lib/libc.a(dl-support.os)
_dl_tls_generation  0x4               /opt/hisi-linux-nptl/arm-hisiv100-linux/bin/../target/usr/lib/libc.a(libc-tls.os)
__nameserver        0x4               /opt/hisi-linux-nptl/arm-hisiv100-linux/bin/../target/usr/lib/libc.a(opennameservers.os)
__fork_handlers     0x4               /opt/hisi-linux-nptl/arm-hisiv100-linux/bin/../target/usr/lib/libc.a(fork.os)
__libc_multiple_threads
                    0x4               /opt/hisi-linux-nptl/arm-hisiv100-linux/bin/../target/usr/lib/libc.a(libc_multiple_threads.os)
_dl_tls_static_nelem
                    0x4               /opt/hisi-linux-nptl/arm-hisiv100-linux/bin/../target/usr/lib/libc.a(libc-tls.os)
__fork_generation   0x4               /opt/hisi-linux-nptl/arm-hisiv100-linux/bin/../target/usr/lib/libpthread.a(pthread_once.os)
__nameservers       0x4               /opt/hisi-linux-nptl/arm-hisiv100-linux/bin/../target/usr/lib/libc.a(opennameservers.os)
__searchdomains     0x4               /opt/hisi-linux-nptl/arm-hisiv100-linux/bin/../target/usr/lib/libc.a(opennameservers.os)
_dl_phnum           0x4               /opt/hisi-linux-nptl/arm-hisiv100-linux/bin/../target/usr/lib/libc.a(dl-support.os)
_custom_printf_handler
                    0x28              /opt/hisi-linux-nptl/arm-hisiv100-linux/bin/../target/usr/lib/libc.a(_ppfs_parsespec.os)

Discarded input sections

 .note.GNU-stack
                0x00000000        0x0 /opt/hisi-linux-nptl/arm-hisiv100-linux/bin/../target/usr/lib/crt1.o
 .note.GNU-stack
                0x00000000        0x0 /opt/hisi-linux-nptl/arm-hisiv100-linux/bin/../target/usr/lib/crti.o
 .note.GNU-stack
                0x00000000        0x0 /opt/hisi-linux-nptl/arm-hisiv100-linux/bin/../lib/gcc/arm-hisiv100-linux-uclibcgnueabi/4.4.1/crtbeginT.o
 .note.GNU-stack
                0x00000000        0x0 main.o
 .note.GNU-stack
                0x00000000        0x0 init.o
 .note.GNU-stack
                0x00000000        0x0 fvideo.o
 .note.GNU-stack
                0x00000000        0x0 videoenc.o
 .note.GNU-stack
                0x00000000        0x0 dvr/i2c/i2c.o
 .note.GNU-stack
                0x00000000        0x0 dvr/sysreg/sys_reg_public.o
 .note.GNU-stack
                0x00000000        0x0 /opt/hisi-linux-nptl/arm-hisiv100-linux/bin/../target/usr/lib/libpthread.a(pthread_create.os)
 .note.GNU-stack
                0x00000000        0x0 /opt/hisi-linux-nptl/arm-hisiv100-linux/bin/../target/usr/lib/libpthread.a(pthread_getspecific.os)
 .note.GNU-stack
                0x00000000        0x0 /opt/hisi-linux-nptl/arm-hisiv100-linux/bin/../target/usr/lib/libpthread.a(pthread_key_create.os)
 .note.GNU-stack
                0x00000000        0x0 /opt/hisi-linux-nptl/arm-hisiv100-linux/bin/../target/usr/lib/libpthread.a(pthread_key_delete.os)
 .note.GNU-stack
                0x00000000        0x0 /opt/hisi-linux-nptl/arm-hisiv100-linux/bin/../target/usr/lib/libpthread.a(pthread_mutex_destroy.os)
 .note.GNU-stack
                0x00000000        0x0 /opt/hisi-linux-nptl/arm-hisiv100-linux/bin/../target/usr/lib/libpthread.a(pthread_mutex_init.os)
 .note.GNU-stack
                0x00000000        0x0 /opt/hisi-linux-nptl/arm-hisiv100-linux/bin/../target/usr/lib/libpthread.a(pthread_mutex_lock.os)
 .note.GNU-stack
                0x00000000        0x0 /opt/hisi-linux-nptl/arm-hisiv100-linux/bin/../target/usr/lib/libpthread.a(pthread_mutex_trylock.os)
 .note.GNU-stack
                0x00000000        0x0 /opt/hisi-linux-nptl/arm-hisiv100-linux/bin/../target/usr/lib/libpthread.a(pthread_mutex_unlock.os)
 .note.GNU-stack
                0x00000000        0x0 /opt/hisi-linux-nptl/arm-hisiv100-linux/bin/../target/usr/lib/libpthread.a(pthread_once.os)
 .note.GNU-stack
                0x00000000        0x0 /opt/hisi-linux-nptl/arm-hisiv100-linux/bin/../target/usr/lib/libpthread.a(pthread_setspecific.os)
 .note.GNU-stack
                0x00000000        0x0 /opt/hisi-linux-nptl/arm-hisiv100-linux/bin/../target/usr/lib/libpthread.a(tpp.os)
 .note.GNU-stack
                0x00000000        0x0 /opt/hisi-linux-nptl/arm-hisiv100-linux/bin/../target/usr/lib/libpthread.a(vars.os)
 .note.GNU-stack
                0x00000000        0x0 /opt/hisi-linux-nptl/arm-hisiv100-linux/bin/../target/usr/lib/libpthread.a(aeabi_read_tp.os)
 .note.GNU-stack
                0x00000000        0x0 /opt/hisi-linux-nptl/arm-hisiv100-linux/bin/../target/usr/lib/libpthread.a(cancellation.os)
 .note.GNU-stack
                0x00000000        0x0 /opt/hisi-linux-nptl/arm-hisiv100-linux/bin/../target/usr/lib/libpthread.a(cleanup_defer_compat.os)
 .note.GNU-stack
                0x00000000        0x0 /opt/hisi-linux-nptl/arm-hisiv100-linux/bin/../target/usr/lib/libpthread.a(events.os)
 .note.GNU-stack
                0x00000000        0x0 /opt/hisi-linux-nptl/arm-hisiv100-linux/bin/../target/usr/lib/libpthread.a(init.os)
 .note.GNU-stack
                0x00000000        0x0 /opt/hisi-linux-nptl/arm-hisiv100-linux/bin/../target/usr/lib/libpthread.a(lowlevellock.os)
 .note.GNU-stack
                0x00000000        0x0 /opt/hisi-linux-nptl/arm-hisiv100-linux/bin/../target/usr/lib/libpthread.a(lowlevelrobustlock.os)
 .note.GNU-stack
                0x00000000        0x0 /opt/hisi-linux-nptl/arm-hisiv100-linux/bin/../target/usr/lib/libpthread.a(pthread_cancel.os)
 .note.GNU-stack
                0x00000000        0x0 /opt/hisi-linux-nptl/arm-hisiv100-linux/bin/../target/usr/lib/libpthread.a(unwind.os)
 .note.GNU-stack
                0x00000000        0x0 /opt/hisi-linux-nptl/arm-hisiv100-linux/bin/../target/usr/lib/libpthread.a(pt-longjmp.os)
 .note.GNU-stack
                0x00000000        0x0 ./lib/libmpi.a(mpi_venc.o)
 .note.GNU-stack
                0x00000000        0x0 ./lib/libmpi.a(mpi_vi.o)
 .note.GNU-stack
                0x00000000        0x0 ./lib/libmem.a(memcpy_back.o)
 .note.GNU-stack
                0x00000000        0x0 /opt/hisi-linux-nptl/arm-hisiv100-linux/bin/../lib/gcc/arm-hisiv100-linux-uclibcgnueabi/4.4.1/libgcc.a(_udivsi3.o)
 .debug_frame   0x00000000       0x20 /opt/hisi-linux-nptl/arm-hisiv100-linux/bin/../lib/gcc/arm-hisiv100-linux-uclibcgnueabi/4.4.1/libgcc.a(_udivsi3.o)
 .debug_line    0x00000000       0x92 /opt/hisi-linux-nptl/arm-hisiv100-linux/bin/../lib/gcc/arm-hisiv100-linux-uclibcgnueabi/4.4.1/libgcc.a(_udivsi3.o)
 .debug_info    0x00000000       0xd9 /opt/hisi-linux-nptl/arm-hisiv100-linux/bin/../lib/gcc/arm-hisiv100-linux-uclibcgnueabi/4.4.1/libgcc.a(_udivsi3.o)
 .debug_abbrev  0x00000000       0x14 /opt/hisi-linux-nptl/arm-hisiv100-linux/bin/../lib/gcc/arm-hisiv100-linux-uclibcgnueabi/4.4.1/libgcc.a(_udivsi3.o)
 .debug_aranges
                0x00000000       0x20 /opt/hisi-linux-nptl/arm-hisiv100-linux/bin/../lib/gcc/arm-hisiv100-linux-uclibcgnueabi/4.4.1/libgcc.a(_udivsi3.o)
 .note.GNU-stack
                0x00000000        0x0 /opt/hisi-linux-nptl/arm-hisiv100-linux/bin/../lib/gcc/arm-hisiv100-linux-uclibcgnueabi/4.4.1/libgcc.a(_arm_addsubdf3.o)
 .debug_line    0x00000000      0x1e6 /opt/hisi-linux-nptl/arm-hisiv100-linux/bin/../lib/gcc/arm-hisiv100-linux-uclibcgnueabi/4.4.1/libgcc.a(_arm_addsubdf3.o)
 .debug_info    0x00000000       0xd8 /opt/hisi-linux-nptl/arm-hisiv100-linux/bin/../lib/gcc/arm-hisiv100-linux-uclibcgnueabi/4.4.1/libgcc.a(_arm_addsubdf3.o)
 .debug_abbrev  0x00000000       0x14 /opt/hisi-linux-nptl/arm-hisiv100-linux/bin/../lib/gcc/arm-hisiv100-linux-uclibcgnueabi/4.4.1/libgcc.a(_arm_addsubdf3.o)
 .debug_aranges
                0x00000000       0x20 /opt/hisi-linux-nptl/arm-hisiv100-linux/bin/../lib/gcc/arm-hisiv100-linux-uclibcgnueabi/4.4.1/libgcc.a(_arm_addsubdf3.o)
 .note.GNU-stack
                0x00000000        0x0 /opt/hisi-linux-nptl/arm-hisiv100-linux/bin/../lib/gcc/arm-hisiv100-linux-uclibcgnueabi/4.4.1/libgcc.a(_arm_muldivdf3.o)
 .debug_line    0x00000000      0x20b /opt/hisi-linux-nptl/arm-hisiv100-linux/bin/../lib/gcc/arm-hisiv100-linux-uclibcgnueabi/4.4.1/libgcc.a(_arm_muldivdf3.o)
 .debug_info    0x00000000       0xd8 /opt/hisi-linux-nptl/arm-hisiv100-linux/bin/../lib/gcc/arm-hisiv100-linux-uclibcgnueabi/4.4.1/libgcc.a(_arm_muldivdf3.o)
 .debug_abbrev  0x00000000       0x14 /opt/hisi-linux-nptl/arm-hisiv100-linux/bin/../lib/gcc/arm-hisiv100-linux-uclibcgnueabi/4.4.1/libgcc.a(_arm_muldivdf3.o)
 .debug_aranges
                0x00000000       0x20 /opt/hisi-linux-nptl/arm-hisiv100-linux/bin/../lib/gcc/arm-hisiv100-linux-uclibcgnueabi/4.4.1/libgcc.a(_arm_muldivdf3.o)
 .note.GNU-stack
                0x00000000        0x0 /opt/hisi-linux-nptl/arm-hisiv100-linux/bin/../lib/gcc/arm-hisiv100-linux-uclibcgnueabi/4.4.1/libgcc.a(_arm_fixunsdfsi.o)
 .debug_line    0x00000000       0x82 /opt/hisi-linux-nptl/arm-hisiv100-linux/bin/../lib/gcc/arm-hisiv100-linux-uclibcgnueabi/4.4.1/libgcc.a(_arm_fixunsdfsi.o)
 .debug_info    0x00000000       0xd8 /opt/hisi-linux-nptl/arm-hisiv100-linux/bin/../lib/gcc/arm-hisiv100-linux-uclibcgnueabi/4.4.1/libgcc.a(_arm_fixunsdfsi.o)
 .debug_abbrev  0x00000000       0x14 /opt/hisi-linux-nptl/arm-hisiv100-linux/bin/../lib/gcc/arm-hisiv100-linux-uclibcgnueabi/4.4.1/libgcc.a(_arm_fixunsdfsi.o)
 .debug_aranges
                0x00000000       0x20 /opt/hisi-linux-nptl/arm-hisiv100-linux/bin/../lib/gcc/arm-hisiv100-linux-uclibcgnueabi/4.4.1/libgcc.a(_arm_fixunsdfsi.o)
 .note.GNU-stack
                0x00000000        0x0 /opt/hisi-linux-nptl/arm-hisiv100-linux/bin/../lib/gcc/arm-hisiv100-linux-uclibcgnueabi/4.4.1/libgcc.a(_dvmd_lnx.o)
 .debug_line    0x00000000       0x75 /opt/hisi-linux-nptl/arm-hisiv100-linux/bin/../lib/gcc/arm-hisiv100-linux-uclibcgnueabi/4.4.1/libgcc.a(_dvmd_lnx.o)
 .debug_info    0x00000000       0xd9 /opt/hisi-linux-nptl/arm-hisiv100-linux/bin/../lib/gcc/arm-hisiv100-linux-uclibcgnueabi/4.4.1/libgcc.a(_dvmd_lnx.o)
 .debug_abbrev  0x00000000       0x14 /opt/hisi-linux-nptl/arm-hisiv100-linux/bin/../lib/gcc/arm-hisiv100-linux-uclibcgnueabi/4.4.1/libgcc.a(_dvmd_lnx.o)
 .debug_aranges
                0x00000000       0x20 /opt/hisi-linux-nptl/arm-hisiv100-linux/bin/../lib/gcc/arm-hisiv100-linux-uclibcgnueabi/4.4.1/libgcc.a(_dvmd_lnx.o)
 .debug_abbrev  0x00000000      0x3b1 /opt/hisi-linux-nptl/arm-hisiv100-linux/bin/../lib/gcc/arm-hisiv100-linux-uclibcgnueabi/4.4.1/libgcc_eh.a(unwind-arm.o)
 .debug_info    0x00000000     0x16f9 /opt/hisi-linux-nptl/arm-hisiv100-linux/bin/../lib/gcc/arm-hisiv100-linux-uclibcgnueabi/4.4.1/libgcc_eh.a(unwind-arm.o)
 .debug_line    0x00000000      0x527 /opt/hisi-linux-nptl/arm-hisiv100-linux/bin/../lib/gcc/arm-hisiv100-linux-uclibcgnueabi/4.4.1/libgcc_eh.a(unwind-arm.o)
 .debug_loc     0x00000000      0xfd4 /opt/hisi-linux-nptl/arm-hisiv100-linux/bin/../lib/gcc/arm-hisiv100-linux-uclibcgnueabi/4.4.1/libgcc_eh.a(unwind-arm.o)
 .debug_pubnames
                0x00000000      0x177 /opt/hisi-linux-nptl/arm-hisiv100-linux/bin/../lib/gcc/arm-hisiv100-linux-uclibcgnueabi/4.4.1/libgcc_eh.a(unwind-arm.o)
 .debug_aranges
                0x00000000       0x20 /opt/hisi-linux-nptl/arm-hisiv100-linux/bin/../lib/gcc/arm-hisiv100-linux-uclibcgnueabi/4.4.1/libgcc_eh.a(unwind-arm.o)
 .debug_ranges  0x00000000      0x3f0 /opt/hisi-linux-nptl/arm-hisiv100-linux/bin/../lib/gcc/arm-hisiv100-linux-uclibcgnueabi/4.4.1/libgcc_eh.a(unwind-arm.o)
 .debug_str     0x00000000      0x928 /opt/hisi-linux-nptl/arm-hisiv100-linux/bin/../lib/gcc/arm-hisiv100-linux-uclibcgnueabi/4.4.1/libgcc_eh.a(unwind-arm.o)
 .note.GNU-stack
                0x00000000        0x0 /opt/hisi-linux-nptl/arm-hisiv100-linux/bin/../lib/gcc/arm-hisiv100-linux-uclibcgnueabi/4.4.1/libgcc_eh.a(unwind-arm.o)
 .debug_frame   0x00000000      0x200 /opt/hisi-linux-nptl/arm-hisiv100-linux/bin/../lib/gcc/arm-hisiv100-linux-uclibcgnueabi/4.4.1/libgcc_eh.a(unwind-arm.o)
 .note.GNU-stack
                0x00000000        0x0 /opt/hisi-linux-nptl/arm-hisiv100-linux/bin/../lib/gcc/arm-hisiv100-linux-uclibcgnueabi/4.4.1/libgcc_eh.a(libunwind.o)
 .debug_line    0x00000000       0xbb /opt/hisi-linux-nptl/arm-hisiv100-linux/bin/../lib/gcc/arm-hisiv100-linux-uclibcgnueabi/4.4.1/libgcc_eh.a(libunwind.o)
 .debug_info    0x00000000       0xd7 /opt/hisi-linux-nptl/arm-hisiv100-linux/bin/../lib/gcc/arm-hisiv100-linux-uclibcgnueabi/4.4.1/libgcc_eh.a(libunwind.o)
 .debug_abbrev  0x00000000       0x14 /opt/hisi-linux-nptl/arm-hisiv100-linux/bin/../lib/gcc/arm-hisiv100-linux-uclibcgnueabi/4.4.1/libgcc_eh.a(libunwind.o)
 .debug_aranges
                0x00000000       0x20 /opt/hisi-linux-nptl/arm-hisiv100-linux/bin/../lib/gcc/arm-hisiv100-linux-uclibcgnueabi/4.4.1/libgcc_eh.a(libunwind.o)
 .debug_abbrev  0x00000000      0x276 /opt/hisi-linux-nptl/arm-hisiv100-linux/bin/../lib/gcc/arm-hisiv100-linux-uclibcgnueabi/4.4.1/libgcc_eh.a(pr-support.o)
 .debug_info    0x00000000      0x79e /opt/hisi-linux-nptl/arm-hisiv100-linux/bin/../lib/gcc/arm-hisiv100-linux-uclibcgnueabi/4.4.1/libgcc_eh.a(pr-support.o)
 .debug_line    0x00000000      0x295 /opt/hisi-linux-nptl/arm-hisiv100-linux/bin/../lib/gcc/arm-hisiv100-linux-uclibcgnueabi/4.4.1/libgcc_eh.a(pr-support.o)
 .debug_loc     0x00000000      0x2fc /opt/hisi-linux-nptl/arm-hisiv100-linux/bin/../lib/gcc/arm-hisiv100-linux-uclibcgnueabi/4.4.1/libgcc_eh.a(pr-support.o)
 .debug_pubnames
                0x00000000       0xb7 /opt/hisi-linux-nptl/arm-hisiv100-linux/bin/../lib/gcc/arm-hisiv100-linux-uclibcgnueabi/4.4.1/libgcc_eh.a(pr-support.o)
 .debug_aranges
                0x00000000       0x20 /opt/hisi-linux-nptl/arm-hisiv100-linux/bin/../lib/gcc/arm-hisiv100-linux-uclibcgnueabi/4.4.1/libgcc_eh.a(pr-support.o)
 .debug_ranges  0x00000000      0x340 /opt/hisi-linux-nptl/arm-hisiv100-linux/bin/../lib/gcc/arm-hisiv100-linux-uclibcgnueabi/4.4.1/libgcc_eh.a(pr-support.o)
 .debug_str     0x00000000      0x495 /opt/hisi-linux-nptl/arm-hisiv100-linux/bin/../lib/gcc/arm-hisiv100-linux-uclibcgnueabi/4.4.1/libgcc_eh.a(pr-support.o)
 .note.GNU-stack
                0x00000000        0x0 /opt/hisi-linux-nptl/arm-hisiv100-linux/bin/../lib/gcc/arm-hisiv100-linux-uclibcgnueabi/4.4.1/libgcc_eh.a(pr-support.o)
 .debug_frame   0x00000000       0xc0 /opt/hisi-linux-nptl/arm-hisiv100-linux/bin/../lib/gcc/arm-hisiv100-linux-uclibcgnueabi/4.4.1/libgcc_eh.a(pr-support.o)
 .debug_abbrev  0x00000000      0x299 /opt/hisi-linux-nptl/arm-hisiv100-linux/bin/../lib/gcc/arm-hisiv100-linux-uclibcgnueabi/4.4.1/libgcc_eh.a(unwind-c.o)
 .debug_info    0x00000000      0xec8 /opt/hisi-linux-nptl/arm-hisiv100-linux/bin/../lib/gcc/arm-hisiv100-linux-uclibcgnueabi/4.4.1/libgcc_eh.a(unwind-c.o)
 .debug_line    0x00000000      0x321 /opt/hisi-linux-nptl/arm-hisiv100-linux/bin/../lib/gcc/arm-hisiv100-linux-uclibcgnueabi/4.4.1/libgcc_eh.a(unwind-c.o)
 .debug_loc     0x00000000     0x1095 /opt/hisi-linux-nptl/arm-hisiv100-linux/bin/../lib/gcc/arm-hisiv100-linux-uclibcgnueabi/4.4.1/libgcc_eh.a(unwind-c.o)
 .debug_pubnames
                0x00000000       0x2b /opt/hisi-linux-nptl/arm-hisiv100-linux/bin/../lib/gcc/arm-hisiv100-linux-uclibcgnueabi/4.4.1/libgcc_eh.a(unwind-c.o)
 .debug_aranges
                0x00000000       0x20 /opt/hisi-linux-nptl/arm-hisiv100-linux/bin/../lib/gcc/arm-hisiv100-linux-uclibcgnueabi/4.4.1/libgcc_eh.a(unwind-c.o)
 .debug_ranges  0x00000000      0x5e0 /opt/hisi-linux-nptl/arm-hisiv100-linux/bin/../lib/gcc/arm-hisiv100-linux-uclibcgnueabi/4.4.1/libgcc_eh.a(unwind-c.o)
 .debug_str     0x00000000      0x5db /opt/hisi-linux-nptl/arm-hisiv100-linux/bin/../lib/gcc/arm-hisiv100-linux-uclibcgnueabi/4.4.1/libgcc_eh.a(unwind-c.o)
 .note.GNU-stack
                0x00000000        0x0 /opt/hisi-linux-nptl/arm-hisiv100-linux/bin/../lib/gcc/arm-hisiv100-linux-uclibcgnueabi/4.4.1/libgcc_eh.a(unwind-c.o)
 .debug_frame   0x00000000       0x3c /opt/hisi-linux-nptl/arm-hisiv100-linux/bin/../lib/gcc/arm-hisiv100-linux-uclibcgnueabi/4.4.1/libgcc_eh.a(unwind-c.o)
 .note.GNU-stack
                0x00000000        0x0 /opt/hisi-linux-nptl/arm-hisiv100-linux/bin/../target/usr/lib/libc.a(sigaction.os)
 .note.GNU-stack
                0x00000000        0x0 /opt/hisi-linux-nptl/arm-hisiv100-linux/bin/../target/usr/lib/libc.a(mmap.os)
 .note.GNU-stack
                0x00000000        0x0 /opt/hisi-linux-nptl/arm-hisiv100-linux/bin/../target/usr/lib/libc.a(bsd-_setjmp.os)
 .note.GNU-stack
                0x00000000        0x0 /opt/hisi-linux-nptl/arm-hisiv100-linux/bin/../target/usr/lib/libc.a(sigrestorer.os)
 .note.GNU-stack
                0x00000000        0x0 /opt/hisi-linux-nptl/arm-hisiv100-linux/bin/../target/usr/lib/libc.a(_exit.os)
 .note.GNU-stack
                0x00000000        0x0 /opt/hisi-linux-nptl/arm-hisiv100-linux/bin/../target/usr/lib/libc.a(getpagesize.os)
 .note.GNU-stack
                0x00000000        0x0 /opt/hisi-linux-nptl/arm-hisiv100-linux/bin/../target/usr/lib/libc.a(getrlimit.os)
 .note.GNU-stack
                0x00000000        0x0 /opt/hisi-linux-nptl/arm-hisiv100-linux/bin/../target/usr/lib/libc.a(gettimeofday.os)
 .note.GNU-stack
                0x00000000        0x0 /opt/hisi-linux-nptl/arm-hisiv100-linux/bin/../target/usr/lib/libc.a(ioctl.os)
 .note.GNU-stack
                0x00000000        0x0 /opt/hisi-linux-nptl/arm-hisiv100-linux/bin/../target/usr/lib/libc.a(longjmp.os)
 .note.GNU-stack
                0x00000000        0x0 /opt/hisi-linux-nptl/arm-hisiv100-linux/bin/../target/usr/lib/libc.a(madvise.os)
 .note.GNU-stack
                0x00000000        0x0 /opt/hisi-linux-nptl/arm-hisiv100-linux/bin/../target/usr/lib/libc.a(mprotect.os)
 .note.GNU-stack
                0x00000000        0x0 /opt/hisi-linux-nptl/arm-hisiv100-linux/bin/../target/usr/lib/libc.a(munmap.os)
 .note.GNU-stack
                0x00000000        0x0 /opt/hisi-linux-nptl/arm-hisiv100-linux/bin/../target/usr/lib/libc.a(sched_getparam.os)
 .note.GNU-stack
                0x00000000        0x0 /opt/hisi-linux-nptl/arm-hisiv100-linux/bin/../target/usr/lib/libc.a(sched_get_priority_max.os)
 .note.GNU-stack
                0x00000000        0x0 /opt/hisi-linux-nptl/arm-hisiv100-linux/bin/../target/usr/lib/libc.a(sched_get_priority_min.os)
 .note.GNU-stack
                0x00000000        0x0 /opt/hisi-linux-nptl/arm-hisiv100-linux/bin/../target/usr/lib/libc.a(sched_getscheduler.os)
 .note.GNU-stack
                0x00000000        0x0 /opt/hisi-linux-nptl/arm-hisiv100-linux/bin/../target/usr/lib/libc.a(sched_setscheduler.os)
 .note.GNU-stack
                0x00000000        0x0 /opt/hisi-linux-nptl/arm-hisiv100-linux/bin/../target/usr/lib/libc.a(sigprocmask.os)
 .note.GNU-stack
                0x00000000        0x0 /opt/hisi-linux-nptl/arm-hisiv100-linux/bin/../target/usr/lib/libc.a(ssp.os)
 .note.GNU-stack
                0x00000000        0x0 /opt/hisi-linux-nptl/arm-hisiv100-linux/bin/../target/usr/lib/libc.a(stat.os)
 .note.GNU-stack
                0x00000000        0x0 /opt/hisi-linux-nptl/arm-hisiv100-linux/bin/../target/usr/lib/libc.a(__syscall_rt_sigaction.os)
 .note.GNU-stack
                0x00000000        0x0 /opt/hisi-linux-nptl/arm-hisiv100-linux/bin/../target/usr/lib/libc.a(xstatconv.os)
 .note.GNU-stack
                0x00000000        0x0 /opt/hisi-linux-nptl/arm-hisiv100-linux/bin/../target/usr/lib/libc.a(__assert.os)
 .note.GNU-stack
                0x00000000        0x0 /opt/hisi-linux-nptl/arm-hisiv100-linux/bin/../target/usr/lib/libc.a(errno.os)
 .note.GNU-stack
                0x00000000        0x0 /opt/hisi-linux-nptl/arm-hisiv100-linux/bin/../target/usr/lib/libc.a(__errno_location.os)
 .note.GNU-stack
                0x00000000        0x0 /opt/hisi-linux-nptl/arm-hisiv100-linux/bin/../target/usr/lib/libc.a(syslog.os)
 .note.GNU-stack
                0x00000000        0x0 /opt/hisi-linux-nptl/arm-hisiv100-linux/bin/../target/usr/lib/libc.a(ctime.os)
 .note.GNU-stack
                0x00000000        0x0 /opt/hisi-linux-nptl/arm-hisiv100-linux/bin/../target/usr/lib/libc.a(localtime_r.os)
 .note.GNU-stack
                0x00000000        0x0 /opt/hisi-linux-nptl/arm-hisiv100-linux/bin/../target/usr/lib/libc.a(tzset.os)
 .note.GNU-stack
                0x00000000        0x0 /opt/hisi-linux-nptl/arm-hisiv100-linux/bin/../target/usr/lib/libc.a(_time_localtime_tzi.os)
 .note.GNU-stack
                0x00000000        0x0 /opt/hisi-linux-nptl/arm-hisiv100-linux/bin/../target/usr/lib/libc.a(fclose.os)
 .note.GNU-stack
                0x00000000        0x0 /opt/hisi-linux-nptl/arm-hisiv100-linux/bin/../target/usr/lib/libc.a(fopen.os)
 .note.GNU-stack
                0x00000000        0x0 /opt/hisi-linux-nptl/arm-hisiv100-linux/bin/../target/usr/lib/libc.a(puts.os)
 .note.GNU-stack
                0x00000000        0x0 /opt/hisi-linux-nptl/arm-hisiv100-linux/bin/../target/usr/lib/libc.a(printf.os)
 .note.GNU-stack
                0x00000000        0x0 /opt/hisi-linux-nptl/arm-hisiv100-linux/bin/../target/usr/lib/libc.a(fprintf.os)
 .note.GNU-stack
                0x00000000        0x0 /opt/hisi-linux-nptl/arm-hisiv100-linux/bin/../target/usr/lib/libc.a(snprintf.os)
 .note.GNU-stack
                0x00000000        0x0 /opt/hisi-linux-nptl/arm-hisiv100-linux/bin/../target/usr/lib/libc.a(sprintf.os)
 .note.GNU-stack
                0x00000000        0x0 /opt/hisi-linux-nptl/arm-hisiv100-linux/bin/../target/usr/lib/libc.a(vsnprintf.os)
 .note.GNU-stack
                0x00000000        0x0 /opt/hisi-linux-nptl/arm-hisiv100-linux/bin/../target/usr/lib/libc.a(_fopen.os)
 .note.GNU-stack
                0x00000000        0x0 /opt/hisi-linux-nptl/arm-hisiv100-linux/bin/../target/usr/lib/libc.a(_stdio.os)
 .note.GNU-stack
                0x00000000        0x0 /opt/hisi-linux-nptl/arm-hisiv100-linux/bin/../target/usr/lib/libc.a(_wcommit.os)
 .note.GNU-stack
                0x00000000        0x0 /opt/hisi-linux-nptl/arm-hisiv100-linux/bin/../target/usr/lib/libc.a(_cs_funcs.os)
 .note.GNU-stack
                0x00000000        0x0 /opt/hisi-linux-nptl/arm-hisiv100-linux/bin/../target/usr/lib/libc.a(vfprintf.os)
 .note.GNU-stack
                0x00000000        0x0 /opt/hisi-linux-nptl/arm-hisiv100-linux/bin/../target/usr/lib/libc.a(_vfprintf_internal.os)
 .note.GNU-stack
                0x00000000        0x0 /opt/hisi-linux-nptl/arm-hisiv100-linux/bin/../target/usr/lib/libc.a(_ppfs_init.os)
 .note.GNU-stack
                0x00000000        0x0 /opt/hisi-linux-nptl/arm-hisiv100-linux/bin/../target/usr/lib/libc.a(_ppfs_prepargs.os)
 .note.GNU-stack
                0x00000000        0x0 /opt/hisi-linux-nptl/arm-hisiv100-linux/bin/../target/usr/lib/libc.a(_ppfs_setargs.os)
 .note.GNU-stack
                0x00000000        0x0 /opt/hisi-linux-nptl/arm-hisiv100-linux/bin/../target/usr/lib/libc.a(_ppfs_parsespec.os)
 .note.GNU-stack
                0x00000000        0x0 /opt/hisi-linux-nptl/arm-hisiv100-linux/bin/../target/usr/lib/libc.a(fwrite.os)
 .note.GNU-stack
                0x00000000        0x0 /opt/hisi-linux-nptl/arm-hisiv100-linux/bin/../target/usr/lib/libc.a(fflush_unlocked.os)
 .note.GNU-stack
                0x00000000        0x0 /opt/hisi-linux-nptl/arm-hisiv100-linux/bin/../target/usr/lib/libc.a(fputc_unlocked.os)
 .note.GNU-stack
                0x00000000        0x0 /opt/hisi-linux-nptl/arm-hisiv100-linux/bin/../target/usr/lib/libc.a(fputs_unlocked.os)
 .note.GNU-stack
                0x00000000        0x0 /opt/hisi-linux-nptl/arm-hisiv100-linux/bin/../target/usr/lib/libc.a(fwrite_unlocked.os)
 .note.GNU-stack
                0x00000000        0x0 /opt/hisi-linux-nptl/arm-hisiv100-linux/bin/../target/usr/lib/libc.a(memcpy.os)
 .note.GNU-stack
                0x00000000        0x0 /opt/hisi-linux-nptl/arm-hisiv100-linux/bin/../target/usr/lib/libc.a(memmove.os)
 .note.GNU-stack
                0x00000000        0x0 /opt/hisi-linux-nptl/arm-hisiv100-linux/bin/../target/usr/lib/libc.a(memset.os)
 .note.GNU-stack
                0x00000000        0x0 /opt/hisi-linux-nptl/arm-hisiv100-linux/bin/../target/usr/lib/libc.a(strcmp.os)
 .note.GNU-stack
                0x00000000        0x0 /opt/hisi-linux-nptl/arm-hisiv100-linux/bin/../target/usr/lib/libc.a(strlen.os)
 .note.GNU-stack
                0x00000000        0x0 /opt/hisi-linux-nptl/arm-hisiv100-linux/bin/../target/usr/lib/libc.a(mempcpy.os)
 .note.GNU-stack
                0x00000000        0x0 /opt/hisi-linux-nptl/arm-hisiv100-linux/bin/../target/usr/lib/libc.a(strchr.os)
 .note.GNU-stack
                0x00000000        0x0 /opt/hisi-linux-nptl/arm-hisiv100-linux/bin/../target/usr/lib/libc.a(strcpy.os)
 .note.GNU-stack
                0x00000000        0x0 /opt/hisi-linux-nptl/arm-hisiv100-linux/bin/../target/usr/lib/libc.a(strncmp.os)
 .note.GNU-stack
                0x00000000        0x0 /opt/hisi-linux-nptl/arm-hisiv100-linux/bin/../target/usr/lib/libc.a(strncpy.os)
 .note.GNU-stack
                0x00000000        0x0 /opt/hisi-linux-nptl/arm-hisiv100-linux/bin/../target/usr/lib/libc.a(strnlen.os)
 .note.GNU-stack
                0x00000000        0x0 /opt/hisi-linux-nptl/arm-hisiv100-linux/bin/../target/usr/lib/libc.a(__glibc_strerror_r.os)
 .note.GNU-stack
                0x00000000        0x0 /opt/hisi-linux-nptl/arm-hisiv100-linux/bin/../target/usr/lib/libc.a(strerror.os)
 .note.GNU-stack
                0x00000000        0x0 /opt/hisi-linux-nptl/arm-hisiv100-linux/bin/../target/usr/lib/libc.a(__xpg_strerror_r.os)
 .note.GNU-stack
                0x00000000        0x0 /opt/hisi-linux-nptl/arm-hisiv100-linux/bin/../target/usr/lib/libc.a(isatty.os)
 .note.GNU-stack
                0x00000000        0x0 /opt/hisi-linux-nptl/arm-hisiv100-linux/bin/../target/usr/lib/libc.a(tcgetattr.os)
 .note.GNU-stack
                0x00000000        0x0 /opt/hisi-linux-nptl/arm-hisiv100-linux/bin/../target/usr/lib/libc.a(res_init.os)
 .note.GNU-stack
                0x00000000        0x0 /opt/hisi-linux-nptl/arm-hisiv100-linux/bin/../target/usr/lib/libc.a(connect.os)
 .note.GNU-stack
                0x00000000        0x0 /opt/hisi-linux-nptl/arm-hisiv100-linux/bin/../target/usr/lib/libc.a(send.os)
 .note.GNU-stack
                0x00000000        0x0 /opt/hisi-linux-nptl/arm-hisiv100-linux/bin/../target/usr/lib/libc.a(socket.os)
 .note.GNU-stack
                0x00000000        0x0 /opt/hisi-linux-nptl/arm-hisiv100-linux/bin/../target/usr/lib/libc.a(malloc.os)
 .note.GNU-stack
                0x00000000        0x0 /opt/hisi-linux-nptl/arm-hisiv100-linux/bin/../target/usr/lib/libc.a(calloc.os)
 .note.GNU-stack
                0x00000000        0x0 /opt/hisi-linux-nptl/arm-hisiv100-linux/bin/../target/usr/lib/libc.a(free.os)
 .note.GNU-stack
                0x00000000        0x0 /opt/hisi-linux-nptl/arm-hisiv100-linux/bin/../target/usr/lib/libc.a(abort.os)
 .note.GNU-stack
                0x00000000        0x0 /opt/hisi-linux-nptl/arm-hisiv100-linux/bin/../target/usr/lib/libc.a(getenv.os)
 .note.GNU-stack
                0x00000000        0x0 /opt/hisi-linux-nptl/arm-hisiv100-linux/bin/../target/usr/lib/libc.a(exit.os)
 .note.GNU-stack
                0x00000000        0x0 /opt/hisi-linux-nptl/arm-hisiv100-linux/bin/../target/usr/lib/libc.a(sysconf.os)
 .note.GNU-stack
                0x00000000        0x0 /opt/hisi-linux-nptl/arm-hisiv100-linux/bin/../target/usr/lib/libc.a(clone.os)
 .note.GNU-stack
                0x00000000        0x0 /opt/hisi-linux-nptl/arm-hisiv100-linux/bin/../target/usr/lib/libc.a(libc_pthread_init.os)
 .note.GNU-stack
                0x00000000        0x0 /opt/hisi-linux-nptl/arm-hisiv100-linux/bin/../target/usr/lib/libc.a(libc_multiple_threads.os)
 .note.GNU-stack
                0x00000000        0x0 /opt/hisi-linux-nptl/arm-hisiv100-linux/bin/../target/usr/lib/libc.a(register-atfork.os)
 .note.GNU-stack
                0x00000000        0x0 /opt/hisi-linux-nptl/arm-hisiv100-linux/bin/../target/usr/lib/libc.a(getpid.os)
 .note.GNU-stack
                0x00000000        0x0 /opt/hisi-linux-nptl/arm-hisiv100-linux/bin/../target/usr/lib/libc.a(raise.os)
 .note.GNU-stack
                0x00000000        0x0 /opt/hisi-linux-nptl/arm-hisiv100-linux/bin/../target/usr/lib/libc.a(jmp-unwind.os)
 .note.GNU-stack
                0x00000000        0x0 /opt/hisi-linux-nptl/arm-hisiv100-linux/bin/../target/usr/lib/libc.a(close.os)
 .note.GNU-stack
                0x00000000        0x0 /opt/hisi-linux-nptl/arm-hisiv100-linux/bin/../target/usr/lib/libc.a(open.os)
 .note.GNU-stack
                0x00000000        0x0 /opt/hisi-linux-nptl/arm-hisiv100-linux/bin/../target/usr/lib/libc.a(write.os)
 .note.GNU-stack
                0x00000000        0x0 /opt/hisi-linux-nptl/arm-hisiv100-linux/bin/../target/usr/lib/libc.a(read.os)
 .note.GNU-stack
                0x00000000        0x0 /opt/hisi-linux-nptl/arm-hisiv100-linux/bin/../target/usr/lib/libc.a(libc-cancellation.os)
 .note.GNU-stack
                0x00000000        0x0 /opt/hisi-linux-nptl/arm-hisiv100-linux/bin/../target/usr/lib/libc.a(libc-tls.os)
 .note.GNU-stack
                0x00000000        0x0 /opt/hisi-linux-nptl/arm-hisiv100-linux/bin/../target/usr/lib/libc.a(dl-tls.os)
 .note.GNU-stack
                0x00000000        0x0 /opt/hisi-linux-nptl/arm-hisiv100-linux/bin/../target/usr/lib/libc.a(dl-support.os)
 .note.GNU-stack
                0x00000000        0x0 /opt/hisi-linux-nptl/arm-hisiv100-linux/bin/../target/usr/lib/libc.a(__uClibc_main.os)
 .note.GNU-stack
                0x00000000        0x0 /opt/hisi-linux-nptl/arm-hisiv100-linux/bin/../target/usr/lib/libc.a(__syscall_error.os)
 .note.GNU-stack
                0x00000000        0x0 /opt/hisi-linux-nptl/arm-hisiv100-linux/bin/../target/usr/lib/libc.a(__longjmp.os)
 .note.GNU-stack
                0x00000000        0x0 /opt/hisi-linux-nptl/arm-hisiv100-linux/bin/../target/usr/lib/libc.a(setjmp.os)
 .note.GNU-stack
                0x00000000        0x0 /opt/hisi-linux-nptl/arm-hisiv100-linux/bin/../target/usr/lib/libc.a(getdtablesize.os)
 .note.GNU-stack
                0x00000000        0x0 /opt/hisi-linux-nptl/arm-hisiv100-linux/bin/../target/usr/lib/libc.a(getegid.os)
 .note.GNU-stack
                0x00000000        0x0 /opt/hisi-linux-nptl/arm-hisiv100-linux/bin/../target/usr/lib/libc.a(geteuid.os)
 .note.GNU-stack
                0x00000000        0x0 /opt/hisi-linux-nptl/arm-hisiv100-linux/bin/../target/usr/lib/libc.a(getgid.os)
 .note.GNU-stack
                0x00000000        0x0 /opt/hisi-linux-nptl/arm-hisiv100-linux/bin/../target/usr/lib/libc.a(getuid.os)
 .note.GNU-stack
                0x00000000        0x0 /opt/hisi-linux-nptl/arm-hisiv100-linux/bin/../target/usr/lib/libc.a(kill.os)
 .note.GNU-stack
                0x00000000        0x0 /opt/hisi-linux-nptl/arm-hisiv100-linux/bin/../target/usr/lib/libc.a(lseek.os)
 .note.GNU-stack
                0x00000000        0x0 /opt/hisi-linux-nptl/arm-hisiv100-linux/bin/../target/usr/lib/libc.a(sbrk.os)
 .note.GNU-stack
                0x00000000        0x0 /opt/hisi-linux-nptl/arm-hisiv100-linux/bin/../target/usr/lib/libc.a(__syscall_fcntl.os)
 .note.GNU-stack
                0x00000000        0x0 /opt/hisi-linux-nptl/arm-hisiv100-linux/bin/../target/usr/lib/libc.a(time.os)
 .note.GNU-stack
                0x00000000        0x0 /opt/hisi-linux-nptl/arm-hisiv100-linux/bin/../target/usr/lib/libc.a(llseek.os)
 .note.GNU-stack
                0x00000000        0x0 /opt/hisi-linux-nptl/arm-hisiv100-linux/bin/../target/usr/lib/libc.a(__C_ctype_b.os)
 .note.GNU-stack
                0x00000000        0x0 /opt/hisi-linux-nptl/arm-hisiv100-linux/bin/../target/usr/lib/libc.a(closedir.os)
 .note.GNU-stack
                0x00000000        0x0 /opt/hisi-linux-nptl/arm-hisiv100-linux/bin/../target/usr/lib/libc.a(opendir.os)
 .note.GNU-stack
                0x00000000        0x0 /opt/hisi-linux-nptl/arm-hisiv100-linux/bin/../target/usr/lib/libc.a(readdir64.os)
 .note.GNU-stack
                0x00000000        0x0 /opt/hisi-linux-nptl/arm-hisiv100-linux/bin/../target/usr/lib/libc.a(parse_config.os)
 .note.GNU-stack
                0x00000000        0x0 /opt/hisi-linux-nptl/arm-hisiv100-linux/bin/../target/usr/lib/libc.a(_locale_init.os)
 .note.GNU-stack
                0x00000000        0x0 /opt/hisi-linux-nptl/arm-hisiv100-linux/bin/../target/usr/lib/libc.a(__locale_mbrtowc_l.os)
 .note.GNU-stack
                0x00000000        0x0 /opt/hisi-linux-nptl/arm-hisiv100-linux/bin/../target/usr/lib/libc.a(asctime.os)
 .note.GNU-stack
                0x00000000        0x0 /opt/hisi-linux-nptl/arm-hisiv100-linux/bin/../target/usr/lib/libc.a(asctime_r.os)
 .note.GNU-stack
                0x00000000        0x0 /opt/hisi-linux-nptl/arm-hisiv100-linux/bin/../target/usr/lib/libc.a(_time_t2tm.os)
 .note.GNU-stack
                0x00000000        0x0 /opt/hisi-linux-nptl/arm-hisiv100-linux/bin/../target/usr/lib/libc.a(wcrtomb.os)
 .note.GNU-stack
                0x00000000        0x0 /opt/hisi-linux-nptl/arm-hisiv100-linux/bin/../target/usr/lib/libc.a(mbsrtowcs.os)
 .note.GNU-stack
                0x00000000        0x0 /opt/hisi-linux-nptl/arm-hisiv100-linux/bin/../target/usr/lib/libc.a(wcsrtombs.os)
 .note.GNU-stack
                0x00000000        0x0 /opt/hisi-linux-nptl/arm-hisiv100-linux/bin/../target/usr/lib/libc.a(_wchar_utf8sntowcs.os)
 .note.GNU-stack
                0x00000000        0x0 /opt/hisi-linux-nptl/arm-hisiv100-linux/bin/../target/usr/lib/libc.a(mbsnrtowcs.os)
 .note.GNU-stack
                0x00000000        0x0 /opt/hisi-linux-nptl/arm-hisiv100-linux/bin/../target/usr/lib/libc.a(wcsnrtombs.os)
 .note.GNU-stack
                0x00000000        0x0 /opt/hisi-linux-nptl/arm-hisiv100-linux/bin/../target/usr/lib/libc.a(_WRITE.os)
 .note.GNU-stack
                0x00000000        0x0 /opt/hisi-linux-nptl/arm-hisiv100-linux/bin/../target/usr/lib/libc.a(_fwrite.os)
 .note.GNU-stack
                0x00000000        0x0 /opt/hisi-linux-nptl/arm-hisiv100-linux/bin/../target/usr/lib/libc.a(_trans2w.os)
 .note.GNU-stack
                0x00000000        0x0 /opt/hisi-linux-nptl/arm-hisiv100-linux/bin/../target/usr/lib/libc.a(_load_inttype.os)
 .note.GNU-stack
                0x00000000        0x0 /opt/hisi-linux-nptl/arm-hisiv100-linux/bin/../target/usr/lib/libc.a(_store_inttype.os)
 .note.GNU-stack
                0x00000000        0x0 /opt/hisi-linux-nptl/arm-hisiv100-linux/bin/../target/usr/lib/libc.a(_uintmaxtostr.os)
 .note.GNU-stack
                0x00000000        0x0 /opt/hisi-linux-nptl/arm-hisiv100-linux/bin/../target/usr/lib/libc.a(_fpmaxtostr.os)
 .note.GNU-stack
                0x00000000        0x0 /opt/hisi-linux-nptl/arm-hisiv100-linux/bin/../target/usr/lib/libc.a(fgetc.os)
 .note.GNU-stack
                0x00000000        0x0 /opt/hisi-linux-nptl/arm-hisiv100-linux/bin/../target/usr/lib/libc.a(fgets.os)
 .note.GNU-stack
                0x00000000        0x0 /opt/hisi-linux-nptl/arm-hisiv100-linux/bin/../target/usr/lib/libc.a(fgetc_unlocked.os)
 .note.GNU-stack
                0x00000000        0x0 /opt/hisi-linux-nptl/arm-hisiv100-linux/bin/../target/usr/lib/libc.a(fgets_unlocked.os)
 .note.GNU-stack
                0x00000000        0x0 /opt/hisi-linux-nptl/arm-hisiv100-linux/bin/../target/usr/lib/libc.a(memcmp.os)
 .note.GNU-stack
                0x00000000        0x0 /opt/hisi-linux-nptl/arm-hisiv100-linux/bin/../target/usr/lib/libc.a(_memcpy.os)
 .note.GNU-stack
                0x00000000        0x0 /opt/hisi-linux-nptl/arm-hisiv100-linux/bin/../target/usr/lib/libc.a(memchr.os)
 .note.GNU-stack
                0x00000000        0x0 /opt/hisi-linux-nptl/arm-hisiv100-linux/bin/../target/usr/lib/libc.a(memrchr.os)
 .note.GNU-stack
                0x00000000        0x0 /opt/hisi-linux-nptl/arm-hisiv100-linux/bin/../target/usr/lib/libc.a(strchrnul.os)
 .note.GNU-stack
                0x00000000        0x0 /opt/hisi-linux-nptl/arm-hisiv100-linux/bin/../target/usr/lib/libc.a(strcspn.os)
 .note.GNU-stack
                0x00000000        0x0 /opt/hisi-linux-nptl/arm-hisiv100-linux/bin/../target/usr/lib/libc.a(strspn.os)
 .note.GNU-stack
                0x00000000        0x0 /opt/hisi-linux-nptl/arm-hisiv100-linux/bin/../target/usr/lib/libc.a(_string_syserrmsgs.os)
 .note.GNU-stack
                0x00000000        0x0 /opt/hisi-linux-nptl/arm-hisiv100-linux/bin/../target/usr/lib/libc.a(opennameservers.os)
 .note.GNU-stack
                0x00000000        0x0 /opt/hisi-linux-nptl/arm-hisiv100-linux/bin/../target/usr/lib/libc.a(closenameservers.os)
 .note.GNU-stack
                0x00000000        0x0 /opt/hisi-linux-nptl/arm-hisiv100-linux/bin/../target/usr/lib/libc.a(sigjmp.os)
 .note.GNU-stack
                0x00000000        0x0 /opt/hisi-linux-nptl/arm-hisiv100-linux/bin/../target/usr/lib/libc.a(realloc.os)
 .note.GNU-stack
                0x00000000        0x0 /opt/hisi-linux-nptl/arm-hisiv100-linux/bin/../target/usr/lib/libc.a(atol.os)
 .note.GNU-stack
                0x00000000        0x0 /opt/hisi-linux-nptl/arm-hisiv100-linux/bin/../target/usr/lib/libc.a(strtol.os)
 .note.GNU-stack
                0x00000000        0x0 /opt/hisi-linux-nptl/arm-hisiv100-linux/bin/../target/usr/lib/libc.a(_stdlib_strto_l.os)
 .note.GNU-stack
                0x00000000        0x0 /opt/hisi-linux-nptl/arm-hisiv100-linux/bin/../target/usr/lib/libc.a(fork.os)
 .note.GNU-stack
                0x00000000        0x0 /opt/hisi-linux-nptl/arm-hisiv100-linux/bin/../target/usr/lib/libc.a(locale_data.os)
 .note.GNU-stack
                0x00000000        0x0 /opt/hisi-linux-nptl/arm-hisiv100-linux/bin/../target/usr/lib/libc.a(brk.os)
 .note.GNU-stack
                0x00000000        0x0 /opt/hisi-linux-nptl/arm-hisiv100-linux/bin/../target/usr/lib/libc.a(fstat.os)
 .note.GNU-stack
                0x00000000        0x0 /opt/hisi-linux-nptl/arm-hisiv100-linux/bin/../target/usr/lib/libc.a(gethostname.os)
 .note.GNU-stack
                0x00000000        0x0 /opt/hisi-linux-nptl/arm-hisiv100-linux/bin/../target/usr/lib/libc.a(mremap.os)
 .note.GNU-stack
                0x00000000        0x0 /opt/hisi-linux-nptl/arm-hisiv100-linux/bin/../target/usr/lib/libc.a(uname.os)
 .note.GNU-stack
                0x00000000        0x0 /opt/hisi-linux-nptl/arm-hisiv100-linux/bin/../target/usr/lib/libc.a(getdents64.os)
 .note.GNU-stack
                0x00000000        0x0 /opt/hisi-linux-nptl/arm-hisiv100-linux/bin/../target/usr/lib/libc.a(__C_ctype_tolower.os)
 .note.GNU-stack
                0x00000000        0x0 /opt/hisi-linux-nptl/arm-hisiv100-linux/bin/../target/usr/lib/libc.a(__C_ctype_toupper.os)
 .note.GNU-stack
                0x00000000        0x0 /opt/hisi-linux-nptl/arm-hisiv100-linux/bin/../target/usr/lib/libc.a(_wchar_wcsntoutf8s.os)
 .note.GNU-stack
                0x00000000        0x0 /opt/hisi-linux-nptl/arm-hisiv100-linux/bin/../target/usr/lib/libc.a(fseeko.os)
 .note.GNU-stack
                0x00000000        0x0 /opt/hisi-linux-nptl/arm-hisiv100-linux/bin/../target/usr/lib/libc.a(fseeko64.os)
 .note.GNU-stack
                0x00000000        0x0 /opt/hisi-linux-nptl/arm-hisiv100-linux/bin/../target/usr/lib/libc.a(_READ.os)
 .note.GNU-stack
                0x00000000        0x0 /opt/hisi-linux-nptl/arm-hisiv100-linux/bin/../target/usr/lib/libc.a(_adjust_pos.os)
 .note.GNU-stack
                0x00000000        0x0 /opt/hisi-linux-nptl/arm-hisiv100-linux/bin/../target/usr/lib/libc.a(_rfill.os)
 .note.GNU-stack
                0x00000000        0x0 /opt/hisi-linux-nptl/arm-hisiv100-linux/bin/../target/usr/lib/libc.a(_trans2r.os)
 .note.GNU-stack
                0x00000000        0x0 /opt/hisi-linux-nptl/arm-hisiv100-linux/bin/../target/usr/lib/libc.a(strdup.os)
 .note.GNU-stack
                0x00000000        0x0 /opt/hisi-linux-nptl/arm-hisiv100-linux/bin/../target/usr/lib/libc.a(ntop.os)
 .note.GNU-stack
                0x00000000        0x0 /opt/hisi-linux-nptl/arm-hisiv100-linux/bin/../lib/gcc/arm-hisiv100-linux-uclibcgnueabi/4.4.1/libgcc.a(_divsi3.o)
 .debug_frame   0x00000000       0x20 /opt/hisi-linux-nptl/arm-hisiv100-linux/bin/../lib/gcc/arm-hisiv100-linux-uclibcgnueabi/4.4.1/libgcc.a(_divsi3.o)
 .debug_line    0x00000000       0x9e /opt/hisi-linux-nptl/arm-hisiv100-linux/bin/../lib/gcc/arm-hisiv100-linux-uclibcgnueabi/4.4.1/libgcc.a(_divsi3.o)
 .debug_info    0x00000000       0xd9 /opt/hisi-linux-nptl/arm-hisiv100-linux/bin/../lib/gcc/arm-hisiv100-linux-uclibcgnueabi/4.4.1/libgcc.a(_divsi3.o)
 .debug_abbrev  0x00000000       0x14 /opt/hisi-linux-nptl/arm-hisiv100-linux/bin/../lib/gcc/arm-hisiv100-linux-uclibcgnueabi/4.4.1/libgcc.a(_divsi3.o)
 .debug_aranges
                0x00000000       0x20 /opt/hisi-linux-nptl/arm-hisiv100-linux/bin/../lib/gcc/arm-hisiv100-linux-uclibcgnueabi/4.4.1/libgcc.a(_divsi3.o)
 .note.GNU-stack
                0x00000000        0x0 /opt/hisi-linux-nptl/arm-hisiv100-linux/bin/../lib/gcc/arm-hisiv100-linux-uclibcgnueabi/4.4.1/libgcc.a(_arm_cmpdf2.o)
 .debug_line    0x00000000      0x102 /opt/hisi-linux-nptl/arm-hisiv100-linux/bin/../lib/gcc/arm-hisiv100-linux-uclibcgnueabi/4.4.1/libgcc.a(_arm_cmpdf2.o)
 .debug_info    0x00000000       0xd8 /opt/hisi-linux-nptl/arm-hisiv100-linux/bin/../lib/gcc/arm-hisiv100-linux-uclibcgnueabi/4.4.1/libgcc.a(_arm_cmpdf2.o)
 .debug_abbrev  0x00000000       0x14 /opt/hisi-linux-nptl/arm-hisiv100-linux/bin/../lib/gcc/arm-hisiv100-linux-uclibcgnueabi/4.4.1/libgcc.a(_arm_cmpdf2.o)
 .debug_aranges
                0x00000000       0x20 /opt/hisi-linux-nptl/arm-hisiv100-linux/bin/../lib/gcc/arm-hisiv100-linux-uclibcgnueabi/4.4.1/libgcc.a(_arm_cmpdf2.o)
 .note.GNU-stack
                0x00000000        0x0 /opt/hisi-linux-nptl/arm-hisiv100-linux/bin/../lib/gcc/arm-hisiv100-linux-uclibcgnueabi/4.4.1/crtend.o
 .note.GNU-stack
                0x00000000        0x0 /opt/hisi-linux-nptl/arm-hisiv100-linux/bin/../target/usr/lib/crtn.o

Memory Configuration

Name             Origin             Length             Attributes
*default*        0x00000000         0xffffffff

Linker script and memory map

LOAD /opt/hisi-linux-nptl/arm-hisiv100-linux/bin/../target/usr/lib/crt1.o
LOAD /opt/hisi-linux-nptl/arm-hisiv100-linux/bin/../target/usr/lib/crti.o
LOAD /opt/hisi-linux-nptl/arm-hisiv100-linux/bin/../lib/gcc/arm-hisiv100-linux-uclibcgnueabi/4.4.1/crtbeginT.o
LOAD main.o
LOAD init.o
LOAD fvideo.o
LOAD videoenc.o
LOAD dvr/i2c/i2c.o
LOAD dvr/sysreg/sys_reg_public.o
LOAD /opt/hisi-linux-nptl/arm-hisiv100-linux/bin/../target/usr/lib/libpthread.a
LOAD ./lib/libmpi.a
LOAD ./lib/libVoiceEngine.a
LOAD ./lib/libaec.a
LOAD ./lib/libanr.a
LOAD ./lib/libhdmi.a
LOAD ./lib/libjpeg6b.a
LOAD ./lib/libmem.a
LOAD ./lib/libresampler.a
LOAD ./lib/libtde.a
LOAD ./lib/libvqev2.a
START GROUP
LOAD /opt/hisi-linux-nptl/arm-hisiv100-linux/bin/../lib/gcc/arm-hisiv100-linux-uclibcgnueabi/4.4.1/libgcc.a
LOAD /opt/hisi-linux-nptl/arm-hisiv100-linux/bin/../lib/gcc/arm-hisiv100-linux-uclibcgnueabi/4.4.1/libgcc_eh.a
LOAD /opt/hisi-linux-nptl/arm-hisiv100-linux/bin/../target/usr/lib/libc.a
END GROUP
LOAD /opt/hisi-linux-nptl/arm-hisiv100-linux/bin/../lib/gcc/arm-hisiv100-linux-uclibcgnueabi/4.4.1/crtend.o
LOAD /opt/hisi-linux-nptl/arm-hisiv100-linux/bin/../target/usr/lib/crtn.o
                0x00008000                PROVIDE (__executable_start, 0x8000)
                0x000080d4                . = (0x8000 + SIZEOF_HEADERS)

.interp
 *(.interp)

.note.gnu.build-id
 *(.note.gnu.build-id)

.hash
 *(.hash)

.gnu.hash
 *(.gnu.hash)

.dynsym
 *(.dynsym)

.dynstr
 *(.dynstr)

.gnu.version
 *(.gnu.version)

.gnu.version_d
 *(.gnu.version_d)

.gnu.version_r
 *(.gnu.version_r)

.rel.dyn        0x000080d4        0x0
 *(.rel.init)
 *(.rel.text .rel.text.* .rel.gnu.linkonce.t.*)
 *(.rel.fini)
 *(.rel.rodata .rel.rodata.* .rel.gnu.linkonce.r.*)
 *(.rel.data.rel.ro* .rel.gnu.linkonce.d.rel.ro.*)
 *(.rel.data .rel.data.* .rel.gnu.linkonce.d.*)
 *(.rel.tdata .rel.tdata.* .rel.gnu.linkonce.td.*)
 *(.rel.tbss .rel.tbss.* .rel.gnu.linkonce.tb.*)
 *(.rel.ctors)
 *(.rel.dtors)
 *(.rel.got)
 .rel.got       0x00000000        0x0 /opt/hisi-linux-nptl/arm-hisiv100-linux/bin/../target/usr/lib/libpthread.a(pthread_create.os)
 *(.rel.bss .rel.bss.* .rel.gnu.linkonce.b.*)
 *(.rel.ifunc)

.rela.dyn
 *(.rela.init)
 *(.rela.text .rela.text.* .rela.gnu.linkonce.t.*)
 *(.rela.fini)
 *(.rela.rodata .rela.rodata.* .rela.gnu.linkonce.r.*)
 *(.rela.data .rela.data.* .rela.gnu.linkonce.d.*)
 *(.rela.tdata .rela.tdata.* .rela.gnu.linkonce.td.*)
 *(.rela.tbss .rela.tbss.* .rela.gnu.linkonce.tb.*)
 *(.rela.ctors)
 *(.rela.dtors)
 *(.rela.got)
 *(.rela.bss .rela.bss.* .rela.gnu.linkonce.b.*)
 *(.rela.ifunc)

.rel.plt        0x000080d4        0x0
 *(.rel.plt)
                0x000080d4                PROVIDE (__rel_iplt_start, .)
 *(.rel.iplt)
                0x000080d4                PROVIDE (__rel_iplt_end, .)

.rela.plt       0x000080d4        0x0
 *(.rela.plt)
                0x000080d4                PROVIDE (__rela_iplt_start, .)
 *(.rela.iplt)
                0x000080d4                PROVIDE (__rela_iplt_end, .)

.init           0x000080d4       0x10
 *(.init)
 .init          0x000080d4        0xc /opt/hisi-linux-nptl/arm-hisiv100-linux/bin/../target/usr/lib/crti.o
                0x000080d4                _init
 .init          0x000080e0        0x4 /opt/hisi-linux-nptl/arm-hisiv100-linux/bin/../target/usr/lib/crtn.o

.plt
 *(.plt)
 *(.iplt)

.text           0x000080f0    0x29be0
 *(.text .stub .text.* .gnu.linkonce.t.*)
 .text          0x000080f0       0x3c /opt/hisi-linux-nptl/arm-hisiv100-linux/bin/../target/usr/lib/crt1.o
                0x000080f0                _start
 .text          0x0000812c       0x3c /opt/hisi-linux-nptl/arm-hisiv100-linux/bin/../target/usr/lib/crti.o
                0x0000812c                _call_via_r0
                0x00008130                _call_via_r1
                0x00008134                _call_via_r2
                0x00008138                _call_via_r3
                0x0000813c                _call_via_r4
                0x00008140                _call_via_r5
                0x00008144                _call_via_r6
                0x00008148                _call_via_r7
                0x0000814c                _call_via_r8
                0x00008150                _call_via_r9
                0x00008154                _call_via_sl
                0x00008158                _call_via_fp
                0x0000815c                _call_via_ip
                0x00008160                _call_via_sp
                0x00008164                _call_via_lr
 .text          0x00008168       0x4c /opt/hisi-linux-nptl/arm-hisiv100-linux/bin/../lib/gcc/arm-hisiv100-linux-uclibcgnueabi/4.4.1/crtbeginT.o
 .text          0x000081b4      0x3f0 main.o
                0x000081b4                VencGetThread
                0x000084d0                main
 .text          0x000085a4      0x440 init.o
                0x000085a4                ViChnConfig
                0x0000888c                ViPubConfig
                0x00008994                vim_init
 .text          0x000089e4      0x290 fvideo.o
                0x000089e4                nvp6124_videoGetVstd
                0x00008b34                nvp6124_videoCreate
 .text          0x00008c74     0x10b0 videoenc.o
                0x00008c74                GetSubTypeByType
                0x00008c7c                VEncChn_Print
                0x00008c80                VEncChn_Init_720P
                0x00008c84                VEncChn_SetAttr_720P
                0x00008c8c                VEncChn_SetSnapParam
                0x00008ce8                VEncChn_ForceIFrame
                0x00008d80                VEncChn_Stop
                0x00008e94                VEncChn_Start
                0x000090c0                VEncChn_SetAttr_General
                0x00009168                VEncChn_SetAttr
                0x0000916c                VEncChn_GetAttr
                0x00009428                VEncChn_Create
                0x00009430                VEncChn_Init_General
                0x000099f8                VEncChn_Init
                0x000099fc                VEncChn_Destory_Inner
                0x00009c14                VEncChn_Destory
                0x00009c1c                VEncChn_Exit
 .text          0x00009d24      0x40c dvr/i2c/i2c.o
                0x00009d80                i2c_read_raw
                0x00009e18                i2c_write_raw
                0x00009f0c                GPIO_I2C_Write0
                0x00009f80                GPIO_I2C_Read0
                0x0000a040                I2C_Write
                0x0000a0b4                I2C_Read
 .text          0x0000a130      0x1fc dvr/sysreg/sys_reg_public.o
                0x0000a184                sys_reg_write
                0x0000a20c                sys_reg_read
                0x0000a294                sys_reg_config
 .text          0x0000a32c     0x23bc /opt/hisi-linux-nptl/arm-hisiv100-linux/bin/../target/usr/lib/libpthread.a(pthread_create.os)
                0x0000a468                __make_stacks_executable
                0x0000a768                __find_in_stack_list
                0x0000a8d4                __wait_lookup_done
                0x0000ab04                __nptl_setxid
                0x0000add4                __nptl_deallocate_tsd
                0x0000af18                __pthread_init_static_tls
                0x0000b0ec                __free_stacks
                0x0000b1cc                __deallocate_stack
                0x0000b324                __free_tcb
                0x0000ba60                pthread_create
                0x0000ba60                __pthread_create_2_1
                0x0000c4cc                __reclaim_stacks
 .text          0x0000c6e8       0xc0 /opt/hisi-linux-nptl/arm-hisiv100-linux/bin/../target/usr/lib/libpthread.a(pthread_getspecific.os)
                0x0000c6e8                pthread_getspecific
                0x0000c6e8                __pthread_getspecific_internal
                0x0000c6e8                __pthread_getspecific
 .text          0x0000c7a8       0xc4 /opt/hisi-linux-nptl/arm-hisiv100-linux/bin/../target/usr/lib/libpthread.a(pthread_key_create.os)
                0x0000c7a8                __pthread_key_create_internal
                0x0000c7a8                __pthread_key_create
                0x0000c7a8                pthread_key_create
 .text          0x0000c86c       0xa0 /opt/hisi-linux-nptl/arm-hisiv100-linux/bin/../target/usr/lib/libpthread.a(pthread_key_delete.os)
                0x0000c86c                pthread_key_delete
 .text          0x0000c90c       0x6c /opt/hisi-linux-nptl/arm-hisiv100-linux/bin/../target/usr/lib/libpthread.a(pthread_mutex_destroy.os)
                0x0000c90c                __pthread_mutex_destroy
                0x0000c90c                pthread_mutex_destroy
 .text          0x0000c978      0x150 /opt/hisi-linux-nptl/arm-hisiv100-linux/bin/../target/usr/lib/libpthread.a(pthread_mutex_init.os)
                0x0000c978                __pthread_mutex_init
                0x0000c978                pthread_mutex_init
 .text          0x0000cac8      0x838 /opt/hisi-linux-nptl/arm-hisiv100-linux/bin/../target/usr/lib/libpthread.a(pthread_mutex_lock.os)
                0x0000d068                __pthread_mutex_lock
                0x0000d068                pthread_mutex_lock
                0x0000d068                __pthread_mutex_lock_internal
 .text          0x0000d300      0x594 /opt/hisi-linux-nptl/arm-hisiv100-linux/bin/../target/usr/lib/libpthread.a(pthread_mutex_trylock.os)
                0x0000d300                __pthread_mutex_trylock
                0x0000d300                pthread_mutex_trylock
 .text          0x0000d894      0x6e4 /opt/hisi-linux-nptl/arm-hisiv100-linux/bin/../target/usr/lib/libpthread.a(pthread_mutex_unlock.os)
                0x0000ddc4                __pthread_mutex_unlock_usercnt
                0x0000df30                __pthread_mutex_unlock
                0x0000df30                pthread_mutex_unlock
                0x0000df30                __pthread_mutex_unlock_internal
 .text          0x0000df78      0x108 /opt/hisi-linux-nptl/arm-hisiv100-linux/bin/../target/usr/lib/libpthread.a(pthread_once.os)
                0x0000df98                __pthread_once
                0x0000df98                __pthread_once_internal
                0x0000df98                pthread_once
 .text          0x0000e080      0x108 /opt/hisi-linux-nptl/arm-hisiv100-linux/bin/../target/usr/lib/libpthread.a(pthread_setspecific.os)
                0x0000e080                __pthread_setspecific
                0x0000e080                __pthread_setspecific_internal
                0x0000e080                pthread_setspecific
 .text          0x0000e188      0x4e8 /opt/hisi-linux-nptl/arm-hisiv100-linux/bin/../target/usr/lib/libpthread.a(tpp.os)
                0x0000e188                __pthread_current_priority
                0x0000e2f8                __init_sched_fifo_prio
                0x0000e364                __pthread_tpp_change_priority
 .text          0x0000e670        0x0 /opt/hisi-linux-nptl/arm-hisiv100-linux/bin/../target/usr/lib/libpthread.a(vars.os)
 .text          0x0000e670       0x10 /opt/hisi-linux-nptl/arm-hisiv100-linux/bin/../target/usr/lib/libpthread.a(aeabi_read_tp.os)
                0x0000e670                __aeabi_read_tp
 .text          0x0000e680      0x1b8 /opt/hisi-linux-nptl/arm-hisiv100-linux/bin/../target/usr/lib/libpthread.a(cancellation.os)
                0x0000e680                __pthread_disable_asynccancel
                0x0000e744                __pthread_enable_asynccancel
 .text          0x0000e838      0x1d8 /opt/hisi-linux-nptl/arm-hisiv100-linux/bin/../target/usr/lib/libpthread.a(cleanup_defer_compat.os)
                0x0000e838                __pthread_cleanup_push_defer
                0x0000e838                _pthread_cleanup_push_defer
                0x0000e8f0                _pthread_cleanup_pop_restore
                0x0000e8f0                __pthread_cleanup_pop_restore
 .text          0x0000ea10       0x78 /opt/hisi-linux-nptl/arm-hisiv100-linux/bin/../target/usr/lib/libpthread.a(events.os)
                0x0000ea10                __GI___nptl_create_event
                0x0000ea10                __nptl_create_event
                0x0000ea4c                __GI___nptl_death_event
                0x0000ea4c                __nptl_death_event
 .text          0x0000ea88      0x5c0 /opt/hisi-linux-nptl/arm-hisiv100-linux/bin/../target/usr/lib/libpthread.a(init.os)
                0x0000ed30                __pthread_initialize_minimal
                0x0000ed30                __pthread_initialize_minimal_internal
 .text          0x0000f048      0x318 /opt/hisi-linux-nptl/arm-hisiv100-linux/bin/../target/usr/lib/libpthread.a(lowlevellock.os)
                0x0000f048                __lll_lock_wait_private
                0x0000f0dc                __lll_lock_wait
                0x0000f174                __lll_timedwait_tid
                0x0000f23c                __lll_timedlock_wait
 .text          0x0000f360      0x27c /opt/hisi-linux-nptl/arm-hisiv100-linux/bin/../target/usr/lib/libpthread.a(lowlevelrobustlock.os)
                0x0000f360                __lll_robust_timedlock_wait
                0x0000f4e0                __lll_robust_lock_wait
 .text          0x0000f5dc      0x13c /opt/hisi-linux-nptl/arm-hisiv100-linux/bin/../target/usr/lib/libpthread.a(pthread_cancel.os)
                0x0000f5dc                pthread_cancel
 .text          0x0000f718      0x214 /opt/hisi-linux-nptl/arm-hisiv100-linux/bin/../target/usr/lib/libpthread.a(unwind.os)
                0x0000f718                __GI___pthread_unwind
                0x0000f718                __pthread_unwind
                0x0000f780                __pthread_unwind_next
                0x0000f780                __GI___pthread_unwind_next
 .text          0x0000f92c       0x44 /opt/hisi-linux-nptl/arm-hisiv100-linux/bin/../target/usr/lib/libpthread.a(pt-longjmp.os)
                0x0000f92c                longjmp
                0x0000f92c                siglongjmp
 .text          0x0000f970        0x0 ./lib/libmpi.a(mpi_venc.o)
 .text.VencVirt2User
                0x0000f970       0x34 ./lib/libmpi.a(mpi_venc.o)
                0x0000f970                VencVirt2User
 .text.VencVirt2Phy
                0x0000f9a4       0x34 ./lib/libmpi.a(mpi_venc.o)
                0x0000f9a4                VencVirt2Phy
 .text.VencUser2Virt
                0x0000f9d8       0x34 ./lib/libmpi.a(mpi_venc.o)
                0x0000f9d8                VencUser2Virt
 .text.MPI_VENC_Exit
                0x0000fa0c       0x68 ./lib/libmpi.a(mpi_venc.o)
                0x0000fa0c                MPI_VENC_Exit
 .text.MPI_VENC_Init
                0x0000fa74       0xac ./lib/libmpi.a(mpi_venc.o)
                0x0000fa74                MPI_VENC_Init
 .text.T.410    0x0000fb20       0xc8 ./lib/libmpi.a(mpi_venc.o)
 .text.HI_MPI_VENC_StartRecvPicEx
                0x0000fbe8      0x1f0 ./lib/libmpi.a(mpi_venc.o)
                0x0000fbe8                HI_MPI_VENC_StartRecvPicEx
 .text.HI_MPI_VENC_GetStreamBufInfo
                0x0000fdd8      0x204 ./lib/libmpi.a(mpi_venc.o)
                0x0000fdd8                HI_MPI_VENC_GetStreamBufInfo
 .text.HI_MPI_VENC_SetRcPriority
                0x0000ffdc      0x1c0 ./lib/libmpi.a(mpi_venc.o)
                0x0000ffdc                HI_MPI_VENC_SetRcPriority
 .text.HI_MPI_VENC_GetRcPriority
                0x0001019c      0x1fc ./lib/libmpi.a(mpi_venc.o)
                0x0001019c                HI_MPI_VENC_GetRcPriority
 .text.HI_MPI_VENC_SetLostFrameStrategy
                0x00010398      0x200 ./lib/libmpi.a(mpi_venc.o)
                0x00010398                HI_MPI_VENC_SetLostFrameStrategy
 .text.HI_MPI_VENC_SendFrame
                0x00010598      0x160 ./lib/libmpi.a(mpi_venc.o)
                0x00010598                HI_MPI_VENC_SendFrame
 .text.HI_MPI_VENC_VpssQuery
                0x000106f8      0x160 ./lib/libmpi.a(mpi_venc.o)
                0x000106f8                HI_MPI_VENC_VpssQuery
 .text.HI_MPI_VENC_VpssSend
                0x00010858      0x160 ./lib/libmpi.a(mpi_venc.o)
                0x00010858                HI_MPI_VENC_VpssSend
 .text.HI_MPI_GRP_GetFileHandle
                0x000109b8      0x10c ./lib/libmpi.a(mpi_venc.o)
                0x000109b8                HI_MPI_GRP_GetFileHandle
 .text.HI_MPI_VENC_SetGrpFrmRate
                0x00010ac4      0x160 ./lib/libmpi.a(mpi_venc.o)
                0x00010ac4                HI_MPI_VENC_SetGrpFrmRate
 .text.HI_MPI_VENC_GetGrpFrmRate
                0x00010c24      0x160 ./lib/libmpi.a(mpi_venc.o)
                0x00010c24                HI_MPI_VENC_GetGrpFrmRate
 .text.HI_MPI_VENC_SetGrpColor2Grey
                0x00010d84      0x160 ./lib/libmpi.a(mpi_venc.o)
                0x00010d84                HI_MPI_VENC_SetGrpColor2Grey
 .text.HI_MPI_VENC_GetGrpColor2Grey
                0x00010ee4      0x160 ./lib/libmpi.a(mpi_venc.o)
                0x00010ee4                HI_MPI_VENC_GetGrpColor2Grey
 .text.HI_MPI_VENC_SetGrpCrop
                0x00011044      0x160 ./lib/libmpi.a(mpi_venc.o)
                0x00011044                HI_MPI_VENC_SetGrpCrop
 .text.HI_MPI_VENC_GetGrpCrop
                0x000111a4      0x160 ./lib/libmpi.a(mpi_venc.o)
                0x000111a4                HI_MPI_VENC_GetGrpCrop
 .text.HI_MPI_VENC_GetColor2GreyConf
                0x00011304      0x194 ./lib/libmpi.a(mpi_venc.o)
                0x00011304                HI_MPI_VENC_GetColor2GreyConf
 .text.HI_MPI_VENC_CreateGroup
                0x00011498      0x1bc ./lib/libmpi.a(mpi_venc.o)
                0x00011498                HI_MPI_VENC_CreateGroup
 .text.HI_MPI_VENC_DestroyGroup
                0x00011654      0x1c0 ./lib/libmpi.a(mpi_venc.o)
                0x00011654                HI_MPI_VENC_DestroyGroup
 .text.HI_MPI_VENC_SetColor2GreyConf
                0x00011814      0x194 ./lib/libmpi.a(mpi_venc.o)
                0x00011814                HI_MPI_VENC_SetColor2GreyConf
 .text.HI_MPI_VENC_GetCapability
                0x000119a8      0x2ec ./lib/libmpi.a(mpi_venc.o)
                0x000119a8                HI_MPI_VENC_GetCapability
 .text.HI_MPI_VENC_InsertUserData
                0x00011c94      0x2c4 ./lib/libmpi.a(mpi_venc.o)
                0x00011c94                HI_MPI_VENC_InsertUserData
 .text.HI_MPI_VENC_StartRecvPic
                0x00011f58      0x254 ./lib/libmpi.a(mpi_venc.o)
                0x00011f58                HI_MPI_VENC_StartRecvPic
 .text.HI_MPI_VENC_StopRecvPic
                0x000121ac      0x258 ./lib/libmpi.a(mpi_venc.o)
                0x000121ac                HI_MPI_VENC_StopRecvPic
 .text.HI_MPI_VENC_Query
                0x00012404      0x2a0 ./lib/libmpi.a(mpi_venc.o)
                0x00012404                HI_MPI_VENC_Query
 .text.HI_MPI_VENC_DestroyChn
                0x000126a4      0x27c ./lib/libmpi.a(mpi_venc.o)
                0x000126a4                HI_MPI_VENC_DestroyChn
 .text.HI_MPI_VENC_GetChnAttr
                0x00012920      0x2a0 ./lib/libmpi.a(mpi_venc.o)
                0x00012920                HI_MPI_VENC_GetChnAttr
 .text.HI_MPI_VENC_SetChnAttr
                0x00012bc0      0x2a0 ./lib/libmpi.a(mpi_venc.o)
                0x00012bc0                HI_MPI_VENC_SetChnAttr
 .text.HI_MPI_VENC_SetRcPara
                0x00012e60      0x2a0 ./lib/libmpi.a(mpi_venc.o)
                0x00012e60                HI_MPI_VENC_SetRcPara
 .text.HI_MPI_VENC_GetRcPara
                0x00013100      0x2a0 ./lib/libmpi.a(mpi_venc.o)
                0x00013100                HI_MPI_VENC_GetRcPara
 .text.HI_MPI_VENC_GetH264VideoSignal
                0x000133a0      0x2a0 ./lib/libmpi.a(mpi_venc.o)
                0x000133a0                HI_MPI_VENC_GetH264VideoSignal
 .text.HI_MPI_VENC_GetStream
                0x00013640      0x3ac ./lib/libmpi.a(mpi_venc.o)
                0x00013640                HI_MPI_VENC_GetStream
 .text.HI_MPI_VENC_ReleaseStream
                0x000139ec      0x2fc ./lib/libmpi.a(mpi_venc.o)
                0x000139ec                HI_MPI_VENC_ReleaseStream
 .text.HI_MPI_VENC_SetMaxStreamCnt
                0x00013ce8      0x260 ./lib/libmpi.a(mpi_venc.o)
                0x00013ce8                HI_MPI_VENC_SetMaxStreamCnt
 .text.HI_MPI_VENC_GetMaxStreamCnt
                0x00013f48      0x2a0 ./lib/libmpi.a(mpi_venc.o)
                0x00013f48                HI_MPI_VENC_GetMaxStreamCnt
 .text.HI_MPI_VENC_RequestIDR
                0x000141e8      0x258 ./lib/libmpi.a(mpi_venc.o)
                0x000141e8                HI_MPI_VENC_RequestIDR
 .text.HI_MPI_VENC_RequestIDRInst
                0x00014440      0x258 ./lib/libmpi.a(mpi_venc.o)
                0x00014440                HI_MPI_VENC_RequestIDRInst
 .text.HI_MPI_VENC_GetFd
                0x00014698      0x24c ./lib/libmpi.a(mpi_venc.o)
                0x00014698                HI_MPI_VENC_GetFd
 .text.HI_MPI_VENC_GetRoiCfg
                0x000148e4      0x2ec ./lib/libmpi.a(mpi_venc.o)
                0x000148e4                HI_MPI_VENC_GetRoiCfg
 .text.HI_MPI_VENC_SetRoiCfg
                0x00014bd0      0x2dc ./lib/libmpi.a(mpi_venc.o)
                0x00014bd0                HI_MPI_VENC_SetRoiCfg
 .text.HI_MPI_VENC_SetH264SliceSplit
                0x00014eac      0x2a0 ./lib/libmpi.a(mpi_venc.o)
                0x00014eac                HI_MPI_VENC_SetH264SliceSplit
 .text.HI_MPI_VENC_GetH264SliceSplit
                0x0001514c      0x2a0 ./lib/libmpi.a(mpi_venc.o)
                0x0001514c                HI_MPI_VENC_GetH264SliceSplit
 .text.HI_MPI_VENC_SetH264InterPred
                0x000153ec      0x2b0 ./lib/libmpi.a(mpi_venc.o)
                0x000153ec                HI_MPI_VENC_SetH264InterPred
 .text.HI_MPI_VENC_GetH264InterPred
                0x0001569c      0x2b0 ./lib/libmpi.a(mpi_venc.o)
                0x0001569c                HI_MPI_VENC_GetH264InterPred
 .text.HI_MPI_VENC_SetH264IntraPred
                0x0001594c      0x2b0 ./lib/libmpi.a(mpi_venc.o)
                0x0001594c                HI_MPI_VENC_SetH264IntraPred
 .text.HI_MPI_VENC_GetH264IntraPred
                0x00015bfc      0x2b0 ./lib/libmpi.a(mpi_venc.o)
                0x00015bfc                HI_MPI_VENC_GetH264IntraPred
 .text.HI_MPI_VENC_SetH264Trans
                0x00015eac      0x2b0 ./lib/libmpi.a(mpi_venc.o)
                0x00015eac                HI_MPI_VENC_SetH264Trans
 .text.HI_MPI_VENC_GetH264Trans
                0x0001615c      0x2a0 ./lib/libmpi.a(mpi_venc.o)
                0x0001615c                HI_MPI_VENC_GetH264Trans
 .text.HI_MPI_VENC_SetH264Entropy
                0x000163fc      0x2ac ./lib/libmpi.a(mpi_venc.o)
                0x000163fc                HI_MPI_VENC_SetH264Entropy
 .text.HI_MPI_VENC_GetH264Entropy
                0x000166a8      0x2b0 ./lib/libmpi.a(mpi_venc.o)
                0x000166a8                HI_MPI_VENC_GetH264Entropy
 .text.HI_MPI_VENC_SetH264Poc
                0x00016958      0x2b0 ./lib/libmpi.a(mpi_venc.o)
                0x00016958                HI_MPI_VENC_SetH264Poc
 .text.HI_MPI_VENC_GetH264Poc
                0x00016c08      0x2b0 ./lib/libmpi.a(mpi_venc.o)
                0x00016c08                HI_MPI_VENC_GetH264Poc
 .text.HI_MPI_VENC_SetH264Dblk
                0x00016eb8      0x2b0 ./lib/libmpi.a(mpi_venc.o)
                0x00016eb8                HI_MPI_VENC_SetH264Dblk
 .text.HI_MPI_VENC_GetH264Dblk
                0x00017168      0x2b0 ./lib/libmpi.a(mpi_venc.o)
                0x00017168                HI_MPI_VENC_GetH264Dblk
 .text.HI_MPI_VENC_SetH264RDO
                0x00017418      0x2b0 ./lib/libmpi.a(mpi_venc.o)
                0x00017418                HI_MPI_VENC_SetH264RDO
 .text.HI_MPI_VENC_GetH264RDO
                0x000176c8      0x2b0 ./lib/libmpi.a(mpi_venc.o)
                0x000176c8                HI_MPI_VENC_GetH264RDO
 .text.HI_MPI_VENC_SetH264Vui
                0x00017978      0x2b0 ./lib/libmpi.a(mpi_venc.o)
                0x00017978                HI_MPI_VENC_SetH264Vui
 .text.HI_MPI_VENC_GetH264Vui
                0x00017c28      0x2b0 ./lib/libmpi.a(mpi_venc.o)
                0x00017c28                HI_MPI_VENC_GetH264Vui
 .text.HI_MPI_VENC_SetJpegParam
                0x00017ed8      0x2b0 ./lib/libmpi.a(mpi_venc.o)
                0x00017ed8                HI_MPI_VENC_SetJpegParam
 .text.HI_MPI_VENC_GetJpegParam
                0x00018188      0x2a0 ./lib/libmpi.a(mpi_venc.o)
                0x00018188                HI_MPI_VENC_GetJpegParam
 .text.HI_MPI_VENC_SetMjpegParam
                0x00018428      0x2b0 ./lib/libmpi.a(mpi_venc.o)
                0x00018428                HI_MPI_VENC_SetMjpegParam
 .text.HI_MPI_VENC_CreateChn
                0x000186d8      0x48c ./lib/libmpi.a(mpi_venc.o)
                0x000186d8                HI_MPI_VENC_CreateChn
 .text.HI_MPI_VENC_RegisterChn
                0x00018b64      0x294 ./lib/libmpi.a(mpi_venc.o)
                0x00018b64                HI_MPI_VENC_RegisterChn
 .text.HI_MPI_VENC_UnRegisterChn
                0x00018df8      0x264 ./lib/libmpi.a(mpi_venc.o)
                0x00018df8                HI_MPI_VENC_UnRegisterChn
 .text.HI_MPI_VENC_GetLostFrameStrategy
                0x0001905c      0x2b0 ./lib/libmpi.a(mpi_venc.o)
                0x0001905c                HI_MPI_VENC_GetLostFrameStrategy
 .text.HI_MPI_VENC_AttachVbPool
                0x0001930c      0x26c ./lib/libmpi.a(mpi_venc.o)
                0x0001930c                HI_MPI_VENC_AttachVbPool
 .text.HI_MPI_VENC_DetachVbPool
                0x00019578      0x264 ./lib/libmpi.a(mpi_venc.o)
                0x00019578                HI_MPI_VENC_DetachVbPool
 .text.HI_MPI_VENC_SetH264VideoSignal
                0x000197dc      0x2a0 ./lib/libmpi.a(mpi_venc.o)
                0x000197dc                HI_MPI_VENC_SetH264VideoSignal
 .text.HI_MPI_VENC_GetMjpegParam
                0x00019a7c      0x2a0 ./lib/libmpi.a(mpi_venc.o)
                0x00019a7c                HI_MPI_VENC_GetMjpegParam
 .text.HI_MPI_VENC_SetMpeg4Param
                0x00019d1c      0x2b0 ./lib/libmpi.a(mpi_venc.o)
                0x00019d1c                HI_MPI_VENC_SetMpeg4Param
 .text.HI_MPI_VENC_GetMpeg4Param
                0x00019fcc      0x2ac ./lib/libmpi.a(mpi_venc.o)
                0x00019fcc                HI_MPI_VENC_GetMpeg4Param
 .text.HI_MPI_VENC_SetH264eRefMode
                0x0001a278      0x26c ./lib/libmpi.a(mpi_venc.o)
                0x0001a278                HI_MPI_VENC_SetH264eRefMode
 .text.HI_MPI_VENC_GetH264eRefMode
                0x0001a4e4      0x2a0 ./lib/libmpi.a(mpi_venc.o)
                0x0001a4e4                HI_MPI_VENC_GetH264eRefMode
 .text.HI_MPI_VENC_SetH264eRefParam
                0x0001a784      0x2b0 ./lib/libmpi.a(mpi_venc.o)
                0x0001a784                HI_MPI_VENC_SetH264eRefParam
 .text.HI_MPI_VENC_GetH264eRefParam
                0x0001aa34      0x2b0 ./lib/libmpi.a(mpi_venc.o)
                0x0001aa34                HI_MPI_VENC_GetH264eRefParam
 .text.HI_MPI_VENC_EnableIDR
                0x0001ace4      0x268 ./lib/libmpi.a(mpi_venc.o)
                0x0001ace4                HI_MPI_VENC_EnableIDR
 .text.HI_MPI_VENC_EnableInterPskip
                0x0001af4c      0x26c ./lib/libmpi.a(mpi_venc.o)
                0x0001af4c                HI_MPI_VENC_EnableInterPskip
 .text.HI_MPI_VENC_SetJpegSnapMode
                0x0001b1b8      0x26c ./lib/libmpi.a(mpi_venc.o)
                0x0001b1b8                HI_MPI_VENC_SetJpegSnapMode
 .text.HI_MPI_VENC_GetJpegSnapMode
                0x0001b424      0x2a0 ./lib/libmpi.a(mpi_venc.o)
                0x0001b424                HI_MPI_VENC_GetJpegSnapMode
 .text          0x0001b6c4        0x0 ./lib/libmpi.a(mpi_vi.o)
 .text.HI_MPI_VI_GetExtChnAttr
                0x0001b6c4       0x6c ./lib/libmpi.a(mpi_vi.o)
                0x0001b6c4                HI_MPI_VI_GetExtChnAttr
 .text.HI_MPI_VI_SetExtChnAttr
                0x0001b730       0x70 ./lib/libmpi.a(mpi_vi.o)
                0x0001b730                HI_MPI_VI_SetExtChnAttr
 .text.HI_MPI_VI_GetChnScanMode
                0x0001b7a0      0x1ac ./lib/libmpi.a(mpi_vi.o)
                0x0001b7a0                HI_MPI_VI_GetChnScanMode
 .text.HI_MPI_VI_SetChnScanMode
                0x0001b94c      0x154 ./lib/libmpi.a(mpi_vi.o)
                0x0001b94c                HI_MPI_VI_SetChnScanMode
 .text.HI_MPI_VI_GetPortMode
                0x0001baa0      0x1bc ./lib/libmpi.a(mpi_vi.o)
                0x0001baa0                HI_MPI_VI_GetPortMode
 .text.HI_MPI_VI_SetPortMode
                0x0001bc5c      0x15c ./lib/libmpi.a(mpi_vi.o)
                0x0001bc5c                HI_MPI_VI_SetPortMode
 .text.HI_MPI_VI_DisableChn422to420
                0x0001bdb8      0x14c ./lib/libmpi.a(mpi_vi.o)
                0x0001bdb8                HI_MPI_VI_DisableChn422to420
 .text.HI_MPI_VI_EnableChn422to420
                0x0001bf04      0x14c ./lib/libmpi.a(mpi_vi.o)
                0x0001bf04                HI_MPI_VI_EnableChn422to420
 .text.HI_MPI_VI_SetDevAntifogAttr
                0x0001c050      0x1b8 ./lib/libmpi.a(mpi_vi.o)
                0x0001c050                HI_MPI_VI_SetDevAntifogAttr
 .text.HI_MPI_VI_GetChnLuma
                0x0001c208      0x1b0 ./lib/libmpi.a(mpi_vi.o)
                0x0001c208                HI_MPI_VI_GetChnLuma
 .text.HI_MPI_VI_GetRotate
                0x0001c3b8      0x1b0 ./lib/libmpi.a(mpi_vi.o)
                0x0001c3b8                HI_MPI_VI_GetRotate
 .text.HI_MPI_VI_SetRotate
                0x0001c568      0x154 ./lib/libmpi.a(mpi_vi.o)
                0x0001c568                HI_MPI_VI_SetRotate
 .text.HI_MPI_VI_GetLDCAttr
                0x0001c6bc      0x1ac ./lib/libmpi.a(mpi_vi.o)
                0x0001c6bc                HI_MPI_VI_GetLDCAttr
 .text.HI_MPI_VI_SetLDCAttr
                0x0001c868      0x1ac ./lib/libmpi.a(mpi_vi.o)
                0x0001c868                HI_MPI_VI_SetLDCAttr
 .text.HI_MPI_VI_GetCSCAttr
                0x0001ca14      0x1b8 ./lib/libmpi.a(mpi_vi.o)
                0x0001ca14                HI_MPI_VI_GetCSCAttr
 .text.HI_MPI_VI_SetCSCAttr
                0x0001cbcc      0x1b8 ./lib/libmpi.a(mpi_vi.o)
                0x0001cbcc                HI_MPI_VI_SetCSCAttr
 .text.HI_MPI_VI_FlashTrigger
                0x0001cd84      0x160 ./lib/libmpi.a(mpi_vi.o)
                0x0001cd84                HI_MPI_VI_FlashTrigger
 .text.HI_MPI_VI_GetFlashConfig
                0x0001cee4      0x1bc ./lib/libmpi.a(mpi_vi.o)
                0x0001cee4                HI_MPI_VI_GetFlashConfig
 .text.HI_MPI_VI_SetFlashConfig
                0x0001d0a0      0x1bc ./lib/libmpi.a(mpi_vi.o)
                0x0001d0a0                HI_MPI_VI_SetFlashConfig
 .text.HI_MPI_VI_SetRegDelayTime
                0x0001d25c       0xf0 ./lib/libmpi.a(mpi_vi.o)
                0x0001d25c                HI_MPI_VI_SetRegDelayTime
 .text.HI_MPI_VI_Query
                0x0001d34c      0x1ac ./lib/libmpi.a(mpi_vi.o)
                0x0001d34c                HI_MPI_VI_Query
 .text.HI_MPI_VI_GetFd
                0x0001d4f8      0x140 ./lib/libmpi.a(mpi_vi.o)
                0x0001d4f8                HI_MPI_VI_GetFd
 .text.HI_MPI_VI_DisableUserPic
                0x0001d638      0x14c ./lib/libmpi.a(mpi_vi.o)
                0x0001d638                HI_MPI_VI_DisableUserPic
 .text.HI_MPI_VI_EnableUserPic
                0x0001d784      0x14c ./lib/libmpi.a(mpi_vi.o)
                0x0001d784                HI_MPI_VI_EnableUserPic
 .text.HI_MPI_VI_SetUserPic
                0x0001d8d0      0x1ac ./lib/libmpi.a(mpi_vi.o)
                0x0001d8d0                HI_MPI_VI_SetUserPic
 .text.HI_MPI_VI_GetDevAttrEx
                0x0001da7c      0x1bc ./lib/libmpi.a(mpi_vi.o)
                0x0001da7c                HI_MPI_VI_GetDevAttrEx
 .text.HI_MPI_VI_SetDevAttrEx
                0x0001dc38      0x1b8 ./lib/libmpi.a(mpi_vi.o)
                0x0001dc38                HI_MPI_VI_SetDevAttrEx
 .text.HI_MPI_VI_GetChnBind
                0x0001ddf0      0x1b0 ./lib/libmpi.a(mpi_vi.o)
                0x0001ddf0                HI_MPI_VI_GetChnBind
 .text.HI_MPI_VI_ChnUnBind
                0x0001dfa0      0x14c ./lib/libmpi.a(mpi_vi.o)
                0x0001dfa0                HI_MPI_VI_ChnUnBind
 .text.HI_MPI_VI_ChnBind
                0x0001e0ec      0x1ac ./lib/libmpi.a(mpi_vi.o)
                0x0001e0ec                HI_MPI_VI_ChnBind
 .text.HI_MPI_VI_DisableCascadeChn
                0x0001e298      0x14c ./lib/libmpi.a(mpi_vi.o)
                0x0001e298                HI_MPI_VI_DisableCascadeChn
 .text.HI_MPI_VI_EnableCascadeChn
                0x0001e3e4      0x148 ./lib/libmpi.a(mpi_vi.o)
                0x0001e3e4                HI_MPI_VI_EnableCascadeChn
 .text.HI_MPI_VI_DisableCascade
                0x0001e52c      0x158 ./lib/libmpi.a(mpi_vi.o)
                0x0001e52c                HI_MPI_VI_DisableCascade
 .text.HI_MPI_VI_EnableCascade
                0x0001e684      0x154 ./lib/libmpi.a(mpi_vi.o)
                0x0001e684                HI_MPI_VI_EnableCascade
 .text.HI_MPI_VI_DisableVbi
                0x0001e7d8      0x1a8 ./lib/libmpi.a(mpi_vi.o)
                0x0001e7d8                HI_MPI_VI_DisableVbi
 .text.HI_MPI_VI_EnableVbi
                0x0001e980      0x1a8 ./lib/libmpi.a(mpi_vi.o)
                0x0001e980                HI_MPI_VI_EnableVbi
 .text.HI_MPI_VI_GetVbiAttr
                0x0001eb28      0x21c ./lib/libmpi.a(mpi_vi.o)
                0x0001eb28                HI_MPI_VI_GetVbiAttr
 .text.HI_MPI_VI_SetVbiAttr
                0x0001ed44      0x21c ./lib/libmpi.a(mpi_vi.o)
                0x0001ed44                HI_MPI_VI_SetVbiAttr
 .text.HI_MPI_VI_GetFrameDepth
                0x0001ef60      0x1ac ./lib/libmpi.a(mpi_vi.o)
                0x0001ef60                HI_MPI_VI_GetFrameDepth
 .text.HI_MPI_VI_SetFrameDepth
                0x0001f10c      0x154 ./lib/libmpi.a(mpi_vi.o)
                0x0001f10c                HI_MPI_VI_SetFrameDepth
 .text.HI_MPI_VI_ReleaseFrame
                0x0001f260      0x1ac ./lib/libmpi.a(mpi_vi.o)
                0x0001f260                HI_MPI_VI_ReleaseFrame
 .text.HI_MPI_VI_GetFrameTimeOut
                0x0001f40c      0x1b8 ./lib/libmpi.a(mpi_vi.o)
                0x0001f40c                HI_MPI_VI_GetFrameTimeOut
 .text.HI_MPI_VI_GetFrame
                0x0001f5c4      0x1ac ./lib/libmpi.a(mpi_vi.o)
                0x0001f5c4                HI_MPI_VI_GetFrame
 .text.HI_MPI_VI_DisableChnInterrupt
                0x0001f770      0x14c ./lib/libmpi.a(mpi_vi.o)
                0x0001f770                HI_MPI_VI_DisableChnInterrupt
 .text.HI_MPI_VI_EnableChnInterrupt
                0x0001f8bc      0x150 ./lib/libmpi.a(mpi_vi.o)
                0x0001f8bc                HI_MPI_VI_EnableChnInterrupt
 .text.HI_MPI_VI_DisableUserPicRegion
                0x0001fa0c      0x14c ./lib/libmpi.a(mpi_vi.o)
                0x0001fa0c                HI_MPI_VI_DisableUserPicRegion
 .text.HI_MPI_VI_EnableUserPicRegion
                0x0001fb58      0x150 ./lib/libmpi.a(mpi_vi.o)
                0x0001fb58                HI_MPI_VI_EnableUserPicRegion
 .text.HI_MPI_VI_DisableChn
                0x0001fca8      0x150 ./lib/libmpi.a(mpi_vi.o)
                0x0001fca8                HI_MPI_VI_DisableChn
 .text.HI_MPI_VI_EnableChn
                0x0001fdf8      0x150 ./lib/libmpi.a(mpi_vi.o)
                0x0001fdf8                HI_MPI_VI_EnableChn
 .text.HI_MPI_VI_ClearChnMinorAttr
                0x0001ff48      0x150 ./lib/libmpi.a(mpi_vi.o)
                0x0001ff48                HI_MPI_VI_ClearChnMinorAttr
 .text.HI_MPI_VI_GetChnMinorAttr
                0x00020098      0x1b0 ./lib/libmpi.a(mpi_vi.o)
                0x00020098                HI_MPI_VI_GetChnMinorAttr
 .text.HI_MPI_VI_SetChnMinorAttr
                0x00020248      0x1a8 ./lib/libmpi.a(mpi_vi.o)
                0x00020248                HI_MPI_VI_SetChnMinorAttr
 .text.HI_MPI_VI_GetChnAttr
                0x000203f0      0x1b0 ./lib/libmpi.a(mpi_vi.o)
                0x000203f0                HI_MPI_VI_GetChnAttr
 .text.HI_MPI_VI_SetChnAttr
                0x000205a0      0x1b0 ./lib/libmpi.a(mpi_vi.o)
                0x000205a0                HI_MPI_VI_SetChnAttr
 .text.HI_MPI_VI_DisableDev
                0x00020750      0x158 ./lib/libmpi.a(mpi_vi.o)
                0x00020750                HI_MPI_VI_DisableDev
 .text.HI_MPI_VI_EnableDev
                0x000208a8      0x158 ./lib/libmpi.a(mpi_vi.o)
                0x000208a8                HI_MPI_VI_EnableDev
 .text.HI_MPI_VI_GetDevAttr
                0x00020a00      0x1bc ./lib/libmpi.a(mpi_vi.o)
                0x00020a00                HI_MPI_VI_GetDevAttr
 .text.HI_MPI_VI_SetDevAttr
                0x00020bbc      0x1b4 ./lib/libmpi.a(mpi_vi.o)
                0x00020bbc                HI_MPI_VI_SetDevAttr
 .text          0x00020d70       0x10 ./lib/libmem.a(memcpy_back.o)
                0x00020d70                memcpy_back
 .text          0x00020d80       0xc8 ./lib/libmem.a(memset1.o)
                0x00020d80                memset1
 .text          0x00020e48      0x324 ./lib/libmem.a(memcpy1.o)
                0x00020e48                memcpy1
 .text          0x0002116c      0x20c /opt/hisi-linux-nptl/arm-hisiv100-linux/bin/../lib/gcc/arm-hisiv100-linux-uclibcgnueabi/4.4.1/libgcc.a(_udivsi3.o)
                0x0002116c                __udivsi3
                0x0002116c                __aeabi_uidiv
                0x00021358                __aeabi_uidivmod
 .text          0x00021378      0x3b8 /opt/hisi-linux-nptl/arm-hisiv100-linux/bin/../lib/gcc/arm-hisiv100-linux-uclibcgnueabi/4.4.1/libgcc.a(_arm_addsubdf3.o)
                0x00021378                __aeabi_drsub
                0x00021380                __aeabi_dsub
                0x00021380                __subdf3
                0x00021384                __adddf3
                0x00021384                __aeabi_dadd
                0x00021630                __aeabi_ui2d
                0x00021630                __floatunsidf
                0x00021654                __floatsidf
                0x00021654                __aeabi_i2d
                0x0002167c                __extendsfdf2
                0x0002167c                __aeabi_f2d
                0x000216bc                __aeabi_ul2d
                0x000216bc                __floatundidf
                0x000216d0                __floatdidf
                0x000216d0                __aeabi_l2d
 .text          0x00021730      0x470 /opt/hisi-linux-nptl/arm-hisiv100-linux/bin/../lib/gcc/arm-hisiv100-linux-uclibcgnueabi/4.4.1/libgcc.a(_arm_muldivdf3.o)
                0x00021730                __aeabi_dmul
                0x00021730                __muldf3
                0x0002199c                __aeabi_ddiv
                0x0002199c                __divdf3
 .text          0x00021ba0       0x54 /opt/hisi-linux-nptl/arm-hisiv100-linux/bin/../lib/gcc/arm-hisiv100-linux-uclibcgnueabi/4.4.1/libgcc.a(_arm_fixunsdfsi.o)
                0x00021ba0                __fixunsdfsi
                0x00021ba0                __aeabi_d2uiz
 .text          0x00021bf4       0x10 /opt/hisi-linux-nptl/arm-hisiv100-linux/bin/../lib/gcc/arm-hisiv100-linux-uclibcgnueabi/4.4.1/libgcc.a(_dvmd_lnx.o)
                0x00021bf4                __aeabi_ldiv0
                0x00021bf4                __aeabi_idiv0
 .text          0x00021c04     0x1138 /opt/hisi-linux-nptl/arm-hisiv100-linux/bin/../lib/gcc/arm-hisiv100-linux-uclibcgnueabi/4.4.1/libgcc_eh.a(unwind-arm.o)
                0x00021c04                _Unwind_VRS_Get
                0x00021c54                _Unwind_VRS_Set
                0x00021ca4                _Unwind_GetCFA
                0x00021cac                _Unwind_Complete
                0x00021cb0                _Unwind_DeleteException
                0x000221a4                __aeabi_unwind_cpp_pr2
                0x000221ac                __aeabi_unwind_cpp_pr1
                0x000221b4                __aeabi_unwind_cpp_pr0
                0x00022468                __gnu_Unwind_Backtrace
                0x00022680                __gnu_Unwind_ForcedUnwind
                0x000226f4                __gnu_Unwind_RaiseException
                0x000227a4                __gnu_Unwind_Resume_or_Rethrow
                0x000227c4                __gnu_Unwind_Resume
                0x0002282c                _Unwind_VRS_Pop
 .text          0x00022d3c      0x1a8 /opt/hisi-linux-nptl/arm-hisiv100-linux/bin/../lib/gcc/arm-hisiv100-linux-uclibcgnueabi/4.4.1/libgcc_eh.a(libunwind.o)
                0x00022d3c                __restore_core_regs
                0x00022d3c                restore_core_regs
                0x00022d50                __gnu_Unwind_Restore_VFP
                0x00022d58                __gnu_Unwind_Save_VFP
                0x00022d60                __gnu_Unwind_Restore_VFP_D
                0x00022d68                __gnu_Unwind_Save_VFP_D
                0x00022d70                __gnu_Unwind_Restore_VFP_D_16_to_31
                0x00022d78                __gnu_Unwind_Save_VFP_D_16_to_31
                0x00022d80                __gnu_Unwind_Restore_WMMXD
                0x00022dc4                __gnu_Unwind_Save_WMMXD
                0x00022e08                __gnu_Unwind_Restore_WMMXC
                0x00022e1c                __gnu_Unwind_Save_WMMXC
                0x00022e30                ___Unwind_RaiseException
                0x00022e30                _Unwind_RaiseException
                0x00022e54                ___Unwind_Resume
                0x00022e54                _Unwind_Resume
                0x00022e78                _Unwind_Resume_or_Rethrow
                0x00022e78                ___Unwind_Resume_or_Rethrow
                0x00022e9c                ___Unwind_ForcedUnwind
                0x00022e9c                _Unwind_ForcedUnwind
                0x00022ec0                _Unwind_Backtrace
                0x00022ec0                ___Unwind_Backtrace
 .text          0x00022ee4      0x768 /opt/hisi-linux-nptl/arm-hisiv100-linux/bin/../lib/gcc/arm-hisiv100-linux-uclibcgnueabi/4.4.1/libgcc_eh.a(pr-support.o)
                0x00022ee4                _Unwind_GetTextRelBase
                0x00022eec                _Unwind_GetDataRelBase
                0x00022ef4                _Unwind_GetLanguageSpecificData
                0x00022f30                _Unwind_GetRegionStart
                0x00022f60                __gnu_unwind_execute
                0x00023608                __gnu_unwind_frame
 .text          0x0002364c      0x904 /opt/hisi-linux-nptl/arm-hisiv100-linux/bin/../lib/gcc/arm-hisiv100-linux-uclibcgnueabi/4.4.1/libgcc_eh.a(unwind-c.o)
                0x0002364c                __gcc_personality_v0
 .text          0x00023f50       0xc0 /opt/hisi-linux-nptl/arm-hisiv100-linux/bin/../target/usr/lib/libc.a(sigaction.os)
                0x00023f50                __libc_sigaction
                0x00023fd8                __GI_sigaction
                0x00023fd8                sigaction
                0x00023fd8                __sigaction
 .text          0x00024010       0x78 /opt/hisi-linux-nptl/arm-hisiv100-linux/bin/../target/usr/lib/libc.a(mmap.os)
                0x00024010                mmap
                0x00024010                __GI_mmap
 .text          0x00024088        0x8 /opt/hisi-linux-nptl/arm-hisiv100-linux/bin/../target/usr/lib/libc.a(bsd-_setjmp.os)
                0x00024088                _setjmp
 .text          0x00024090       0x18 /opt/hisi-linux-nptl/arm-hisiv100-linux/bin/../target/usr/lib/libc.a(sigrestorer.os)
                0x00024094                __default_sa_restorer
                0x000240a0                __default_rt_sa_restorer
 .text          0x000240a8       0x6c /opt/hisi-linux-nptl/arm-hisiv100-linux/bin/../target/usr/lib/libc.a(_exit.os)
                0x000240a8                _Exit
                0x000240a8                __GI__exit
                0x000240a8                _exit
 .text          0x00024114       0x28 /opt/hisi-linux-nptl/arm-hisiv100-linux/bin/../target/usr/lib/libc.a(getpagesize.os)
                0x00024114                __GI_getpagesize
                0x00024114                getpagesize
                0x00024114                __getpagesize
 .text          0x0002413c       0x3c /opt/hisi-linux-nptl/arm-hisiv100-linux/bin/../target/usr/lib/libc.a(getrlimit.os)
                0x0002413c                getrlimit
                0x0002413c                __GI_getrlimit
 .text          0x00024178       0x3c /opt/hisi-linux-nptl/arm-hisiv100-linux/bin/../target/usr/lib/libc.a(gettimeofday.os)
                0x00024178                gettimeofday
                0x00024178                __GI_gettimeofday
 .text          0x000241b4       0xdc /opt/hisi-linux-nptl/arm-hisiv100-linux/bin/../target/usr/lib/libc.a(ioctl.os)
                0x000241b4                ioctl
                0x000241b4                __GI_ioctl
 .text          0x00024290       0x40 /opt/hisi-linux-nptl/arm-hisiv100-linux/bin/../target/usr/lib/libc.a(longjmp.os)
                0x00024290                _longjmp
                0x00024290                __libc_longjmp
                0x00024290                __libc_siglongjmp
 .text          0x000242d0       0x3c /opt/hisi-linux-nptl/arm-hisiv100-linux/bin/../target/usr/lib/libc.a(madvise.os)
                0x000242d0                madvise
 .text          0x0002430c       0x3c /opt/hisi-linux-nptl/arm-hisiv100-linux/bin/../target/usr/lib/libc.a(mprotect.os)
                0x0002430c                mprotect
 .text          0x00024348       0x3c /opt/hisi-linux-nptl/arm-hisiv100-linux/bin/../target/usr/lib/libc.a(munmap.os)
                0x00024348                munmap
                0x00024348                __GI_munmap
 .text          0x00024384       0x3c /opt/hisi-linux-nptl/arm-hisiv100-linux/bin/../target/usr/lib/libc.a(sched_getparam.os)
                0x00024384                sched_getparam
 .text          0x000243c0       0x3c /opt/hisi-linux-nptl/arm-hisiv100-linux/bin/../target/usr/lib/libc.a(sched_get_priority_max.os)
                0x000243c0                sched_get_priority_max
 .text          0x000243fc       0x3c /opt/hisi-linux-nptl/arm-hisiv100-linux/bin/../target/usr/lib/libc.a(sched_get_priority_min.os)
                0x000243fc                sched_get_priority_min
 .text          0x00024438       0x3c /opt/hisi-linux-nptl/arm-hisiv100-linux/bin/../target/usr/lib/libc.a(sched_getscheduler.os)
                0x00024438                sched_getscheduler
 .text          0x00024474       0x3c /opt/hisi-linux-nptl/arm-hisiv100-linux/bin/../target/usr/lib/libc.a(sched_setscheduler.os)
                0x00024474                sched_setscheduler
 .text          0x000244b0       0x40 /opt/hisi-linux-nptl/arm-hisiv100-linux/bin/../target/usr/lib/libc.a(sigprocmask.os)
                0x000244b0                __GI_sigprocmask
                0x000244b0                sigprocmask
 .text          0x000244f0        0x0 /opt/hisi-linux-nptl/arm-hisiv100-linux/bin/../target/usr/lib/libc.a(ssp.os)
 .text.unlikely
                0x000244f0      0x134 /opt/hisi-linux-nptl/arm-hisiv100-linux/bin/../target/usr/lib/libc.a(ssp.os)
                0x000244f0                __stack_chk_fail
 .text          0x00024624       0x64 /opt/hisi-linux-nptl/arm-hisiv100-linux/bin/../target/usr/lib/libc.a(stat.os)
                0x00024624                __GI_stat
                0x00024624                stat
 .text          0x00024688       0x3c /opt/hisi-linux-nptl/arm-hisiv100-linux/bin/../target/usr/lib/libc.a(__syscall_rt_sigaction.os)
                0x00024688                __syscall_rt_sigaction
 .text          0x000246c4      0x1f4 /opt/hisi-linux-nptl/arm-hisiv100-linux/bin/../target/usr/lib/libc.a(xstatconv.os)
                0x000246c4                __xstat64_conv
                0x0002476c                __xstat32_conv
                0x0002480c                __xstat_conv
 .text          0x000248b8       0x88 /opt/hisi-linux-nptl/arm-hisiv100-linux/bin/../target/usr/lib/libc.a(__assert.os)
                0x000248b8                __GI___assert
                0x000248b8                __assert
 .text          0x00024940        0x0 /opt/hisi-linux-nptl/arm-hisiv100-linux/bin/../target/usr/lib/libc.a(errno.os)
 .text          0x00024940       0x1c /opt/hisi-linux-nptl/arm-hisiv100-linux/bin/../target/usr/lib/libc.a(__errno_location.os)
                0x00024940                __errno_location
                0x00024940                __GI___errno_location
 .text          0x0002495c      0x6ec /opt/hisi-linux-nptl/arm-hisiv100-linux/bin/../target/usr/lib/libc.a(syslog.os)
                0x0002495c                setlogmask
                0x00024a5c                __GI_closelog
                0x00024a5c                closelog
                0x00024be0                vsyslog
                0x00024be0                __GI_vsyslog
                0x00024fb8                __GI_syslog
                0x00024fb8                syslog
                0x00024fdc                openlog
                0x00024fdc                __GI_openlog
 .text          0x00025048       0x38 /opt/hisi-linux-nptl/arm-hisiv100-linux/bin/../target/usr/lib/libc.a(ctime.os)
                0x00025048                __GI_ctime
                0x00025048                ctime
 .text          0x00025080       0x94 /opt/hisi-linux-nptl/arm-hisiv100-linux/bin/../target/usr/lib/libc.a(localtime_r.os)
                0x00025080                __GI_localtime_r
                0x00025080                localtime_r
 .text          0x00025114      0x684 /opt/hisi-linux-nptl/arm-hisiv100-linux/bin/../target/usr/lib/libc.a(tzset.os)
                0x000251b4                _time_tzset
                0x00025770                __GI_tzset
                0x00025770                tzset
 .text          0x00025798      0x364 /opt/hisi-linux-nptl/arm-hisiv100-linux/bin/../target/usr/lib/libc.a(_time_localtime_tzi.os)
                0x00025798                __time_localtime_tzi
 .text          0x00025afc      0x35c /opt/hisi-linux-nptl/arm-hisiv100-linux/bin/../target/usr/lib/libc.a(fclose.os)
                0x00025afc                __GI_fclose
                0x00025afc                fclose
 .text          0x00025e58        0xc /opt/hisi-linux-nptl/arm-hisiv100-linux/bin/../target/usr/lib/libc.a(fopen.os)
                0x00025e58                __GI_fopen
                0x00025e58                fopen
 .text          0x00025e64      0x150 /opt/hisi-linux-nptl/arm-hisiv100-linux/bin/../target/usr/lib/libc.a(puts.os)
                0x00025e64                puts
 .text          0x00025fb4       0x40 /opt/hisi-linux-nptl/arm-hisiv100-linux/bin/../target/usr/lib/libc.a(printf.os)
                0x00025fb4                printf
                0x00025fb4                __GI_printf
 .text          0x00025ff4       0x24 /opt/hisi-linux-nptl/arm-hisiv100-linux/bin/../target/usr/lib/libc.a(fprintf.os)
                0x00025ff4                fprintf
                0x00025ff4                __GI_fprintf
 .text          0x00026018       0x24 /opt/hisi-linux-nptl/arm-hisiv100-linux/bin/../target/usr/lib/libc.a(snprintf.os)
                0x00026018                __GI_snprintf
                0x00026018                snprintf
 .text          0x0002603c       0x28 /opt/hisi-linux-nptl/arm-hisiv100-linux/bin/../target/usr/lib/libc.a(sprintf.os)
                0x0002603c                sprintf
                0x0002603c                __GI_sprintf
 .text          0x00026064       0xbc /opt/hisi-linux-nptl/arm-hisiv100-linux/bin/../target/usr/lib/libc.a(vsnprintf.os)
                0x00026064                __GI_vsnprintf
                0x00026064                vsnprintf
 .text          0x00026120      0x4d4 /opt/hisi-linux-nptl/arm-hisiv100-linux/bin/../target/usr/lib/libc.a(_fopen.os)
                0x00026120                _stdio_fopen
 .text          0x000265f4      0x1c4 /opt/hisi-linux-nptl/arm-hisiv100-linux/bin/../target/usr/lib/libc.a(_stdio.os)
                0x000265f4                _stdio_init
                0x00026670                _stdio_term
 .text          0x000267b8       0x30 /opt/hisi-linux-nptl/arm-hisiv100-linux/bin/../target/usr/lib/libc.a(_wcommit.os)
                0x000267b8                __stdio_wcommit
 .text          0x000267e8       0x44 /opt/hisi-linux-nptl/arm-hisiv100-linux/bin/../target/usr/lib/libc.a(_cs_funcs.os)
                0x000267e8                _cs_close
                0x000267f0                _cs_seek
                0x0002681c                _cs_write
                0x00026824                _cs_read
 .text          0x0002682c      0x144 /opt/hisi-linux-nptl/arm-hisiv100-linux/bin/../target/usr/lib/libc.a(vfprintf.os)
                0x0002682c                __GI_vfprintf
                0x0002682c                vfprintf
 .text          0x00026970      0x7a0 /opt/hisi-linux-nptl/arm-hisiv100-linux/bin/../target/usr/lib/libc.a(_vfprintf_internal.os)
                0x00026a38                _vfprintf_internal
 .text          0x00027110       0xf4 /opt/hisi-linux-nptl/arm-hisiv100-linux/bin/../target/usr/lib/libc.a(_ppfs_init.os)
                0x00027110                _ppfs_init
 .text          0x00027204       0x38 /opt/hisi-linux-nptl/arm-hisiv100-linux/bin/../target/usr/lib/libc.a(_ppfs_prepargs.os)
                0x00027204                _ppfs_prepargs
 .text          0x0002723c      0x174 /opt/hisi-linux-nptl/arm-hisiv100-linux/bin/../target/usr/lib/libc.a(_ppfs_setargs.os)
                0x0002723c                _ppfs_setargs
 .text          0x000273b0      0x5c0 /opt/hisi-linux-nptl/arm-hisiv100-linux/bin/../target/usr/lib/libc.a(_ppfs_parsespec.os)
                0x00027400                _ppfs_parsespec
 .text          0x00027970      0x124 /opt/hisi-linux-nptl/arm-hisiv100-linux/bin/../target/usr/lib/libc.a(fwrite.os)
                0x00027970                fwrite
                0x00027970                __GI_fwrite
 .text          0x00027a94      0x678 /opt/hisi-linux-nptl/arm-hisiv100-linux/bin/../target/usr/lib/libc.a(fflush_unlocked.os)
                0x00027a94                _stdio_openlist_dec_use
                0x00027d58                fflush_unlocked
                0x00027d58                __GI_fflush_unlocked
 .text          0x0002810c       0xf4 /opt/hisi-linux-nptl/arm-hisiv100-linux/bin/../target/usr/lib/libc.a(fputc_unlocked.os)
                0x0002810c                putc_unlocked
                0x0002810c                __GI___fputc_unlocked
                0x0002810c                __GI_putc_unlocked
                0x0002810c                __GI_fputc_unlocked
                0x0002810c                fputc_unlocked
                0x0002810c                __fputc_unlocked
 .text          0x00028200       0x34 /opt/hisi-linux-nptl/arm-hisiv100-linux/bin/../target/usr/lib/libc.a(fputs_unlocked.os)
                0x00028200                __GI_fputs_unlocked
                0x00028200                fputs_unlocked
 .text          0x00028234       0xa8 /opt/hisi-linux-nptl/arm-hisiv100-linux/bin/../target/usr/lib/libc.a(fwrite_unlocked.os)
                0x00028234                __GI_fwrite_unlocked
                0x00028234                fwrite_unlocked
 *fill*         0x000282dc        0x4 00000000
 .text          0x000282e0       0x10 /opt/hisi-linux-nptl/arm-hisiv100-linux/bin/../target/usr/lib/libc.a(memcpy.os)
                0x000282e0                memcpy
                0x000282e0                __GI_memcpy
 .text          0x000282f0       0x10 /opt/hisi-linux-nptl/arm-hisiv100-linux/bin/../target/usr/lib/libc.a(memmove.os)
                0x000282f0                memmove
                0x000282f0                __GI_memmove
 .text          0x00028300       0xa0 /opt/hisi-linux-nptl/arm-hisiv100-linux/bin/../target/usr/lib/libc.a(memset.os)
                0x00028300                __GI_memset
                0x00028300                memset
 .text          0x000283a0       0x20 /opt/hisi-linux-nptl/arm-hisiv100-linux/bin/../target/usr/lib/libc.a(strcmp.os)
                0x000283a0                __GI_strcmp
                0x000283a0                strcmp
 .text          0x000283c0       0x60 /opt/hisi-linux-nptl/arm-hisiv100-linux/bin/../target/usr/lib/libc.a(strlen.os)
                0x000283c0                strlen
                0x000283c0                __GI_strlen
 .text          0x00028420       0x18 /opt/hisi-linux-nptl/arm-hisiv100-linux/bin/../target/usr/lib/libc.a(mempcpy.os)
                0x00028420                mempcpy
                0x00028420                __GI_mempcpy
 .text          0x00028438       0xec /opt/hisi-linux-nptl/arm-hisiv100-linux/bin/../target/usr/lib/libc.a(strchr.os)
                0x00028438                __GI_strchr
                0x00028438                index
                0x00028438                strchr
 .text          0x00028524       0x24 /opt/hisi-linux-nptl/arm-hisiv100-linux/bin/../target/usr/lib/libc.a(strcpy.os)
                0x00028524                strcpy
                0x00028524                __GI_strcpy
 .text          0x00028548      0x11c /opt/hisi-linux-nptl/arm-hisiv100-linux/bin/../target/usr/lib/libc.a(strncmp.os)
                0x00028548                __GI_strncmp
                0x00028548                strncmp
 .text          0x00028664       0xb8 /opt/hisi-linux-nptl/arm-hisiv100-linux/bin/../target/usr/lib/libc.a(strncpy.os)
                0x00028664                strncpy
                0x00028664                __GI_strncpy
 .text          0x0002871c       0xd4 /opt/hisi-linux-nptl/arm-hisiv100-linux/bin/../target/usr/lib/libc.a(strnlen.os)
                0x0002871c                strnlen
                0x0002871c                __GI_strnlen
 .text          0x000287f0       0x14 /opt/hisi-linux-nptl/arm-hisiv100-linux/bin/../target/usr/lib/libc.a(__glibc_strerror_r.os)
                0x000287f0                __GI___glibc_strerror_r
                0x000287f0                __glibc_strerror_r
 .text          0x00028804       0x30 /opt/hisi-linux-nptl/arm-hisiv100-linux/bin/../target/usr/lib/libc.a(strerror.os)
                0x00028804                strerror
                0x00028804                __GI_strerror
 .text          0x00028834      0x138 /opt/hisi-linux-nptl/arm-hisiv100-linux/bin/../target/usr/lib/libc.a(__xpg_strerror_r.os)
                0x00028834                __xpg_strerror_r
                0x00028834                __GI___xpg_strerror_r
                0x00028834                strerror_r
 .text          0x0002896c       0x54 /opt/hisi-linux-nptl/arm-hisiv100-linux/bin/../target/usr/lib/libc.a(isatty.os)
                0x0002896c                isatty
                0x0002896c                __GI_isatty
 .text          0x000289c0       0xb4 /opt/hisi-linux-nptl/arm-hisiv100-linux/bin/../target/usr/lib/libc.a(tcgetattr.os)
                0x000289c0                __GI_tcgetattr
                0x000289c0                tcgetattr
 .text          0x00028a74      0x370 /opt/hisi-linux-nptl/arm-hisiv100-linux/bin/../target/usr/lib/libc.a(res_init.os)
                0x00028b38                __res_close
                0x00028c18                __GI___res_init
                0x00028c18                __res_init
 .text          0x00028de4       0xa4 /opt/hisi-linux-nptl/arm-hisiv100-linux/bin/../target/usr/lib/libc.a(connect.os)
                0x00028e24                connect
                0x00028e24                __GI_connect
                0x00028e24                __libc_connect
 .text          0x00028e88       0xac /opt/hisi-linux-nptl/arm-hisiv100-linux/bin/../target/usr/lib/libc.a(send.os)
                0x00028ec8                send
                0x00028ec8                __GI_send
                0x00028ec8                __libc_send
 .text          0x00028f34       0x40 /opt/hisi-linux-nptl/arm-hisiv100-linux/bin/../target/usr/lib/libc.a(socket.os)
                0x00028f34                socket
                0x00028f34                __GI_socket
 .text          0x00028f74      0x960 /opt/hisi-linux-nptl/arm-hisiv100-linux/bin/../target/usr/lib/libc.a(malloc.os)
                0x00028fec                malloc
 .text          0x000298d4      0x10c /opt/hisi-linux-nptl/arm-hisiv100-linux/bin/../target/usr/lib/libc.a(calloc.os)
                0x000298d4                calloc
 .text          0x000299e0      0x48c /opt/hisi-linux-nptl/arm-hisiv100-linux/bin/../target/usr/lib/libc.a(free.os)
                0x000299e0                __malloc_consolidate
                0x00029c40                malloc_trim
                0x00029c70                free
 .text          0x00029e6c      0x108 /opt/hisi-linux-nptl/arm-hisiv100-linux/bin/../target/usr/lib/libc.a(abort.os)
                0x00029e6c                abort
                0x00029e6c                __GI_abort
 .text          0x00029f74       0x80 /opt/hisi-linux-nptl/arm-hisiv100-linux/bin/../target/usr/lib/libc.a(getenv.os)
                0x00029f74                getenv
                0x00029f74                __GI_getenv
 .text          0x00029ff4       0x8c /opt/hisi-linux-nptl/arm-hisiv100-linux/bin/../target/usr/lib/libc.a(exit.os)
                0x00029ff4                __GI_exit
                0x00029ff4                exit
 .text          0x0002a080      0x734 /opt/hisi-linux-nptl/arm-hisiv100-linux/bin/../target/usr/lib/libc.a(sysconf.os)
                0x0002a1ac                sysconf
                0x0002a1ac                __GI_sysconf
 .text          0x0002a7b4       0x64 /opt/hisi-linux-nptl/arm-hisiv100-linux/bin/../target/usr/lib/libc.a(clone.os)
                0x0002a7b4                __clone
                0x0002a7b4                clone
 .text          0x0002a818       0x68 /opt/hisi-linux-nptl/arm-hisiv100-linux/bin/../target/usr/lib/libc.a(libc_pthread_init.os)
                0x0002a818                __libc_pthread_init
 .text          0x0002a880        0x0 /opt/hisi-linux-nptl/arm-hisiv100-linux/bin/../target/usr/lib/libc.a(libc_multiple_threads.os)
 .text          0x0002a880      0x234 /opt/hisi-linux-nptl/arm-hisiv100-linux/bin/../target/usr/lib/libc.a(register-atfork.os)
                0x0002a880                __linkin_atfork
                0x0002a90c                __GI___register_atfork
                0x0002a90c                __register_atfork
 .text          0x0002aab4       0x80 /opt/hisi-linux-nptl/arm-hisiv100-linux/bin/../target/usr/lib/libc.a(getpid.os)
                0x0002aab4                __getpid
                0x0002aab4                getpid
                0x0002aab4                __GI_getpid
 .text          0x0002ab34      0x124 /opt/hisi-linux-nptl/arm-hisiv100-linux/bin/../target/usr/lib/libc.a(raise.os)
                0x0002ab34                __GI_raise
                0x0002ab34                raise
 .text          0x0002ac58       0x7c /opt/hisi-linux-nptl/arm-hisiv100-linux/bin/../target/usr/lib/libc.a(jmp-unwind.os)
                0x0002ac58                _longjmp_unwind
 *fill*         0x0002acd4        0xc 00000000
 .text          0x0002ace0       0x90 /opt/hisi-linux-nptl/arm-hisiv100-linux/bin/../target/usr/lib/libc.a(close.os)
                0x0002ace4                __GI___close_nocancel
                0x0002ace4                __close_nocancel
                0x0002ad00                __GI_close
                0x0002ad00                __GI___libc_close
                0x0002ad00                __libc_close
                0x0002ad00                __close
                0x0002ad00                __GI___close
                0x0002ad00                close
 .text          0x0002ad70       0x90 /opt/hisi-linux-nptl/arm-hisiv100-linux/bin/../target/usr/lib/libc.a(open.os)
                0x0002ad74                __GI___open_nocancel
                0x0002ad74                __open_nocancel
                0x0002ad90                __open
                0x0002ad90                __GI_open
                0x0002ad90                __GI___open
                0x0002ad90                __libc_open
                0x0002ad90                __GI___libc_open
                0x0002ad90                open
 .text          0x0002ae00       0x90 /opt/hisi-linux-nptl/arm-hisiv100-linux/bin/../target/usr/lib/libc.a(write.os)
                0x0002ae04                __GI___write_nocancel
                0x0002ae04                __write_nocancel
                0x0002ae20                __write
                0x0002ae20                __GI_write
                0x0002ae20                write
                0x0002ae20                __GI___libc_write
                0x0002ae20                __GI___write
                0x0002ae20                __libc_write
 .text          0x0002ae90       0x90 /opt/hisi-linux-nptl/arm-hisiv100-linux/bin/../target/usr/lib/libc.a(read.os)
                0x0002ae94                __read_nocancel
                0x0002ae94                __GI___read_nocancel
                0x0002aeb0                __read
                0x0002aeb0                __GI_read
                0x0002aeb0                __libc_read
                0x0002aeb0                __GI___read
                0x0002aeb0                read
                0x0002aeb0                __GI___libc_read
 .text          0x0002af20      0x140 /opt/hisi-linux-nptl/arm-hisiv100-linux/bin/../target/usr/lib/libc.a(libc-cancellation.os)
                0x0002af20                __libc_disable_asynccancel
                0x0002afa8                __libc_enable_asynccancel
 .text          0x0002b060      0x2c8 /opt/hisi-linux-nptl/arm-hisiv100-linux/bin/../target/usr/lib/libc.a(libc-tls.os)
                0x0002b118                _dl_tls_setup
                0x0002b134                __tls_get_addr
                0x0002b154                __libc_setup_tls
 .text          0x0002b328      0x588 /opt/hisi-linux-nptl/arm-hisiv100-linux/bin/../target/usr/lib/libc.a(dl-tls.os)
                0x0002b328                _dl_get_tls_static_info
                0x0002b360                _dl_memalign
                0x0002b368                _dl_add_to_slotinfo
                0x0002b45c                _dl_deallocate_tls
                0x0002b538                _dl_allocate_tls_init
                0x0002b64c                _dl_allocate_tls_storage
                0x0002b6e4                _dl_allocate_tls
                0x0002b704                _dl_next_tls_modid
                0x0002b7d8                _dl_allocate_static_tls
 .text          0x0002b8b0       0x90 /opt/hisi-linux-nptl/arm-hisiv100-linux/bin/../target/usr/lib/libc.a(dl-support.os)
                0x0002b8b0                _dl_aux_init
                0x0002b8e8                _dl_nothread_init_static_tls
 .text          0x0002b940      0x550 /opt/hisi-linux-nptl/arm-hisiv100-linux/bin/../target/usr/lib/libc.a(__uClibc_main.os)
                0x0002b974                __GI___uClibc_fini
                0x0002b974                __uClibc_fini
                0x0002ba38                __GI___uClibc_init
                0x0002ba38                __uClibc_init
                0x0002bb38                __uClibc_main
 .text          0x0002be90       0x28 /opt/hisi-linux-nptl/arm-hisiv100-linux/bin/../target/usr/lib/libc.a(__syscall_error.os)
                0x0002be90                __syscall_error
 .text          0x0002beb8       0x14 /opt/hisi-linux-nptl/arm-hisiv100-linux/bin/../target/usr/lib/libc.a(__longjmp.os)
                0x0002beb8                __longjmp
                0x0002beb8                __GI___longjmp
 .text          0x0002becc        0xc /opt/hisi-linux-nptl/arm-hisiv100-linux/bin/../target/usr/lib/libc.a(setjmp.os)
                0x0002becc                __sigsetjmp
 .text          0x0002bed8       0x20 /opt/hisi-linux-nptl/arm-hisiv100-linux/bin/../target/usr/lib/libc.a(getdtablesize.os)
                0x0002bed8                getdtablesize
                0x0002bed8                __GI_getdtablesize
 .text          0x0002bef8       0x10 /opt/hisi-linux-nptl/arm-hisiv100-linux/bin/../target/usr/lib/libc.a(getegid.os)
                0x0002bef8                getegid
                0x0002bef8                __GI_getegid
 .text          0x0002bf08       0x10 /opt/hisi-linux-nptl/arm-hisiv100-linux/bin/../target/usr/lib/libc.a(geteuid.os)
                0x0002bf08                geteuid
                0x0002bf08                __GI_geteuid
 .text          0x0002bf18       0x10 /opt/hisi-linux-nptl/arm-hisiv100-linux/bin/../target/usr/lib/libc.a(getgid.os)
                0x0002bf18                getgid
                0x0002bf18                __GI_getgid
 .text          0x0002bf28       0x10 /opt/hisi-linux-nptl/arm-hisiv100-linux/bin/../target/usr/lib/libc.a(getuid.os)
                0x0002bf28                getuid
                0x0002bf28                __GI_getuid
 .text          0x0002bf38       0x3c /opt/hisi-linux-nptl/arm-hisiv100-linux/bin/../target/usr/lib/libc.a(kill.os)
                0x0002bf38                kill
                0x0002bf38                __GI_kill
 .text          0x0002bf74       0x3c /opt/hisi-linux-nptl/arm-hisiv100-linux/bin/../target/usr/lib/libc.a(lseek.os)
                0x0002bf74                lseek
                0x0002bf74                __GI_lseek
 .text          0x0002bfb0       0x64 /opt/hisi-linux-nptl/arm-hisiv100-linux/bin/../target/usr/lib/libc.a(sbrk.os)
                0x0002bfb0                __GI_sbrk
                0x0002bfb0                sbrk
 .text          0x0002c014      0x174 /opt/hisi-linux-nptl/arm-hisiv100-linux/bin/../target/usr/lib/libc.a(__syscall_fcntl.os)
                0x0002c014                __GI___fcntl_nocancel
                0x0002c014                __fcntl_nocancel
                0x0002c09c                __libc_fcntl
                0x0002c09c                __GI___libc_fcntl
                0x0002c09c                __GI_fcntl
                0x0002c09c                fcntl
 .text          0x0002c188       0x24 /opt/hisi-linux-nptl/arm-hisiv100-linux/bin/../target/usr/lib/libc.a(time.os)
                0x0002c188                __GI_time
                0x0002c188                time
 .text          0x0002c1ac       0x68 /opt/hisi-linux-nptl/arm-hisiv100-linux/bin/../target/usr/lib/libc.a(llseek.os)
                0x0002c1ac                __GI_lseek64
                0x0002c1ac                lseek64
 .text          0x0002c214        0x0 /opt/hisi-linux-nptl/arm-hisiv100-linux/bin/../target/usr/lib/libc.a(__C_ctype_b.os)
 .text          0x0002c214       0xcc /opt/hisi-linux-nptl/arm-hisiv100-linux/bin/../target/usr/lib/libc.a(closedir.os)
                0x0002c214                __GI_closedir
                0x0002c214                closedir
 .text          0x0002c2e0      0x1f4 /opt/hisi-linux-nptl/arm-hisiv100-linux/bin/../target/usr/lib/libc.a(opendir.os)
                0x0002c370                __GI_opendir
                0x0002c370                opendir
                0x0002c434                fdopendir
 .text          0x0002c4d4       0xbc /opt/hisi-linux-nptl/arm-hisiv100-linux/bin/../target/usr/lib/libc.a(readdir64.os)
                0x0002c4d4                readdir64
                0x0002c4d4                __GI_readdir64
 .text          0x0002c590      0x360 /opt/hisi-linux-nptl/arm-hisiv100-linux/bin/../target/usr/lib/libc.a(parse_config.os)
                0x0002c590                __GI_config_read
                0x0002c874                __GI_config_close
                0x0002c8a8                __GI_config_open
 .text          0x0002c8f0      0x944 /opt/hisi-linux-nptl/arm-hisiv100-linux/bin/../target/usr/lib/libc.a(_locale_init.os)
                0x0002c8f0                _locale_set_l
                0x0002d0b4                _locale_init_l
                0x0002d214                _locale_init
 .text          0x0002d234       0xb8 /opt/hisi-linux-nptl/arm-hisiv100-linux/bin/../target/usr/lib/libc.a(__locale_mbrtowc_l.os)
                0x0002d234                __locale_mbrtowc_l
 .text          0x0002d2ec       0x1c /opt/hisi-linux-nptl/arm-hisiv100-linux/bin/../target/usr/lib/libc.a(asctime.os)
                0x0002d2ec                asctime
                0x0002d2ec                __GI_asctime
 .text          0x0002d308      0x140 /opt/hisi-linux-nptl/arm-hisiv100-linux/bin/../target/usr/lib/libc.a(asctime_r.os)
                0x0002d308                __GI_asctime_r
                0x0002d308                asctime_r
 .text          0x0002d448      0x1f8 /opt/hisi-linux-nptl/arm-hisiv100-linux/bin/../target/usr/lib/libc.a(_time_t2tm.os)
                0x0002d448                _time_t2tm
 .text          0x0002d640       0x84 /opt/hisi-linux-nptl/arm-hisiv100-linux/bin/../target/usr/lib/libc.a(wcrtomb.os)
                0x0002d640                __GI_wcrtomb
                0x0002d640                wcrtomb
 .text          0x0002d6c4       0x3c /opt/hisi-linux-nptl/arm-hisiv100-linux/bin/../target/usr/lib/libc.a(mbsrtowcs.os)
                0x0002d6c4                __GI_mbsrtowcs
                0x0002d6c4                mbsrtowcs
 .text          0x0002d700       0x1c /opt/hisi-linux-nptl/arm-hisiv100-linux/bin/../target/usr/lib/libc.a(wcsrtombs.os)
                0x0002d700                __GI_wcsrtombs
                0x0002d700                wcsrtombs
 .text          0x0002d71c      0x1c0 /opt/hisi-linux-nptl/arm-hisiv100-linux/bin/../target/usr/lib/libc.a(_wchar_utf8sntowcs.os)
                0x0002d71c                _wchar_utf8sntowcs
 .text          0x0002d8dc      0x18c /opt/hisi-linux-nptl/arm-hisiv100-linux/bin/../target/usr/lib/libc.a(mbsnrtowcs.os)
                0x0002d8dc                mbsnrtowcs
                0x0002d8dc                __GI_mbsnrtowcs
 .text          0x0002da68      0x1c4 /opt/hisi-linux-nptl/arm-hisiv100-linux/bin/../target/usr/lib/libc.a(wcsnrtombs.os)
                0x0002da68                __GI_wcsnrtombs
                0x0002da68                wcsnrtombs
 .text          0x0002dc2c       0xb8 /opt/hisi-linux-nptl/arm-hisiv100-linux/bin/../target/usr/lib/libc.a(_WRITE.os)
                0x0002dc2c                __stdio_WRITE
 .text          0x0002dce4      0x134 /opt/hisi-linux-nptl/arm-hisiv100-linux/bin/../target/usr/lib/libc.a(_fwrite.os)
                0x0002dce4                __stdio_fwrite
 .text          0x0002de18       0xe0 /opt/hisi-linux-nptl/arm-hisiv100-linux/bin/../target/usr/lib/libc.a(_trans2w.os)
                0x0002de18                __stdio_trans2w_o
 .text          0x0002def8       0x74 /opt/hisi-linux-nptl/arm-hisiv100-linux/bin/../target/usr/lib/libc.a(_load_inttype.os)
                0x0002def8                _load_inttype
 .text          0x0002df6c       0x2c /opt/hisi-linux-nptl/arm-hisiv100-linux/bin/../target/usr/lib/libc.a(_store_inttype.os)
                0x0002df6c                _store_inttype
 .text          0x0002df98      0x240 /opt/hisi-linux-nptl/arm-hisiv100-linux/bin/../target/usr/lib/libc.a(_uintmaxtostr.os)
                0x0002df98                _uintmaxtostr
 .text          0x0002e1d8      0xc2c /opt/hisi-linux-nptl/arm-hisiv100-linux/bin/../target/usr/lib/libc.a(_fpmaxtostr.os)
                0x0002e1d8                _fpmaxtostr
 .text          0x0002ee04      0x138 /opt/hisi-linux-nptl/arm-hisiv100-linux/bin/../target/usr/lib/libc.a(fgetc.os)
                0x0002ee04                __GI_fgetc
                0x0002ee04                getc
                0x0002ee04                fgetc
 .text          0x0002ef3c      0x11c /opt/hisi-linux-nptl/arm-hisiv100-linux/bin/../target/usr/lib/libc.a(fgets.os)
                0x0002ef3c                fgets
                0x0002ef3c                __GI_fgets
 .text          0x0002f058      0x114 /opt/hisi-linux-nptl/arm-hisiv100-linux/bin/../target/usr/lib/libc.a(fgetc_unlocked.os)
                0x0002f058                getc_unlocked
                0x0002f058                __GI_fgetc_unlocked
                0x0002f058                __fgetc_unlocked
                0x0002f058                __GI_getc_unlocked
                0x0002f058                __GI___fgetc_unlocked
                0x0002f058                fgetc_unlocked
 .text          0x0002f16c       0x94 /opt/hisi-linux-nptl/arm-hisiv100-linux/bin/../target/usr/lib/libc.a(fgets_unlocked.os)
                0x0002f16c                __GI_fgets_unlocked
                0x0002f16c                fgets_unlocked
 .text          0x0002f200       0x30 /opt/hisi-linux-nptl/arm-hisiv100-linux/bin/../target/usr/lib/libc.a(memcmp.os)
                0x0002f200                bcmp
                0x0002f200                __GI_memcmp
                0x0002f200                memcmp
 .text          0x0002f230      0x490 /opt/hisi-linux-nptl/arm-hisiv100-linux/bin/../target/usr/lib/libc.a(_memcpy.os)
                0x0002f230                _memcpy
 .text          0x0002f6c0       0xf4 /opt/hisi-linux-nptl/arm-hisiv100-linux/bin/../target/usr/lib/libc.a(memchr.os)
                0x0002f6c0                __GI_memchr
                0x0002f6c0                memchr
 .text          0x0002f7b4       0xe4 /opt/hisi-linux-nptl/arm-hisiv100-linux/bin/../target/usr/lib/libc.a(memrchr.os)
                0x0002f7b4                memrchr
                0x0002f7b4                __GI_memrchr
 .text          0x0002f898       0xf0 /opt/hisi-linux-nptl/arm-hisiv100-linux/bin/../target/usr/lib/libc.a(strchrnul.os)
                0x0002f898                __GI_strchrnul
                0x0002f898                strchrnul
 .text          0x0002f988       0x40 /opt/hisi-linux-nptl/arm-hisiv100-linux/bin/../target/usr/lib/libc.a(strcspn.os)
                0x0002f988                strcspn
                0x0002f988                __GI_strcspn
 .text          0x0002f9c8       0x48 /opt/hisi-linux-nptl/arm-hisiv100-linux/bin/../target/usr/lib/libc.a(strspn.os)
                0x0002f9c8                __GI_strspn
                0x0002f9c8                strspn
 .text          0x0002fa10        0x0 /opt/hisi-linux-nptl/arm-hisiv100-linux/bin/../target/usr/lib/libc.a(_string_syserrmsgs.os)
 .text          0x0002fa10      0x530 /opt/hisi-linux-nptl/arm-hisiv100-linux/bin/../target/usr/lib/libc.a(opennameservers.os)
                0x0002fab0                __open_nameservers
 .text          0x0002ff40       0x90 /opt/hisi-linux-nptl/arm-hisiv100-linux/bin/../target/usr/lib/libc.a(closenameservers.os)
                0x0002ff40                __close_nameservers
 .text          0x0002ffd0       0x3c /opt/hisi-linux-nptl/arm-hisiv100-linux/bin/../target/usr/lib/libc.a(sigjmp.os)
                0x0002ffd0                __sigjmp_save
 .text          0x0003000c      0x35c /opt/hisi-linux-nptl/arm-hisiv100-linux/bin/../target/usr/lib/libc.a(realloc.os)
                0x0003000c                realloc
 .text          0x00030368        0xc /opt/hisi-linux-nptl/arm-hisiv100-linux/bin/../target/usr/lib/libc.a(atol.os)
                0x00030368                atol
                0x00030368                atoi
                0x00030368                __GI_atoi
 .text          0x00030374        0x8 /opt/hisi-linux-nptl/arm-hisiv100-linux/bin/../target/usr/lib/libc.a(strtol.os)
                0x00030374                strtol
                0x00030374                __GI_strtol
 .text          0x0003037c      0x1ac /opt/hisi-linux-nptl/arm-hisiv100-linux/bin/../target/usr/lib/libc.a(_stdlib_strto_l.os)
                0x0003037c                _stdlib_strto_l
 .text          0x00030528      0x3e4 /opt/hisi-linux-nptl/arm-hisiv100-linux/bin/../target/usr/lib/libc.a(fork.os)
                0x00030528                fork
                0x00030528                __GI_fork
                0x00030528                __libc_fork
                0x00030528                __fork
 .text          0x0003090c        0x0 /opt/hisi-linux-nptl/arm-hisiv100-linux/bin/../target/usr/lib/libc.a(locale_data.os)
 .text          0x0003090c       0x54 /opt/hisi-linux-nptl/arm-hisiv100-linux/bin/../target/usr/lib/libc.a(brk.os)
                0x0003090c                __GI_brk
                0x0003090c                brk
 .text          0x00030960       0x64 /opt/hisi-linux-nptl/arm-hisiv100-linux/bin/../target/usr/lib/libc.a(fstat.os)
                0x00030960                fstat
                0x00030960                __GI_fstat
 .text          0x000309c4       0xb0 /opt/hisi-linux-nptl/arm-hisiv100-linux/bin/../target/usr/lib/libc.a(gethostname.os)
                0x000309c4                __GI_gethostname
                0x000309c4                gethostname
 .text          0x00030a74       0x40 /opt/hisi-linux-nptl/arm-hisiv100-linux/bin/../target/usr/lib/libc.a(mremap.os)
                0x00030a74                mremap
                0x00030a74                __GI_mremap
 .text          0x00030ab4       0x3c /opt/hisi-linux-nptl/arm-hisiv100-linux/bin/../target/usr/lib/libc.a(uname.os)
                0x00030ab4                uname
                0x00030ab4                __GI_uname
 .text          0x00030af0      0x174 /opt/hisi-linux-nptl/arm-hisiv100-linux/bin/../target/usr/lib/libc.a(getdents64.os)
                0x00030af0                __getdents64
 .text          0x00030c64        0x0 /opt/hisi-linux-nptl/arm-hisiv100-linux/bin/../target/usr/lib/libc.a(__C_ctype_tolower.os)
 .text          0x00030c64        0x0 /opt/hisi-linux-nptl/arm-hisiv100-linux/bin/../target/usr/lib/libc.a(__C_ctype_toupper.os)
 .text          0x00030c64      0x16c /opt/hisi-linux-nptl/arm-hisiv100-linux/bin/../target/usr/lib/libc.a(_wchar_wcsntoutf8s.os)
                0x00030c64                _wchar_wcsntoutf8s
 .text          0x00030dd0       0x18 /opt/hisi-linux-nptl/arm-hisiv100-linux/bin/../target/usr/lib/libc.a(fseeko.os)
                0x00030dd0                __GI_fseek
                0x00030dd0                fseeko
                0x00030dd0                fseek
 .text          0x00030de8      0x1c0 /opt/hisi-linux-nptl/arm-hisiv100-linux/bin/../target/usr/lib/libc.a(fseeko64.os)
                0x00030de8                __GI_fseeko64
                0x00030de8                fseeko64
 .text          0x00030fa8       0x78 /opt/hisi-linux-nptl/arm-hisiv100-linux/bin/../target/usr/lib/libc.a(_READ.os)
                0x00030fa8                __stdio_READ
 .text          0x00031020       0xbc /opt/hisi-linux-nptl/arm-hisiv100-linux/bin/../target/usr/lib/libc.a(_adjust_pos.os)
                0x00031020                __stdio_adjust_position
 .text          0x000310dc       0x2c /opt/hisi-linux-nptl/arm-hisiv100-linux/bin/../target/usr/lib/libc.a(_rfill.os)
                0x000310dc                __stdio_rfill
 .text          0x00031108       0x9c /opt/hisi-linux-nptl/arm-hisiv100-linux/bin/../target/usr/lib/libc.a(_trans2r.os)
                0x00031108                __stdio_trans2r_o
 .text          0x000311a4       0x34 /opt/hisi-linux-nptl/arm-hisiv100-linux/bin/../target/usr/lib/libc.a(strdup.os)
                0x000311a4                __GI_strdup
                0x000311a4                strdup
 .text          0x000311d8      0x78c /opt/hisi-linux-nptl/arm-hisiv100-linux/bin/../target/usr/lib/libc.a(ntop.os)
                0x00031294                inet_pton
                0x00031294                __GI_inet_pton
                0x00031678                __GI_inet_ntop
                0x00031678                inet_ntop
 .text          0x00031964      0x240 /opt/hisi-linux-nptl/arm-hisiv100-linux/bin/../lib/gcc/arm-hisiv100-linux-uclibcgnueabi/4.4.1/libgcc.a(_divsi3.o)
                0x00031964                __aeabi_idiv
                0x00031964                __divsi3
                0x00031b84                __aeabi_idivmod
 .text          0x00031ba4      0x12c /opt/hisi-linux-nptl/arm-hisiv100-linux/bin/../lib/gcc/arm-hisiv100-linux-uclibcgnueabi/4.4.1/libgcc.a(_arm_cmpdf2.o)
                0x00031ba4                __gtdf2
                0x00031ba4                __gedf2
                0x00031bac                __ltdf2
                0x00031bac                __ledf2
                0x00031bb4                __cmpdf2
                0x00031bb4                __eqdf2
                0x00031bb4                __nedf2
                0x00031c3c                __aeabi_cdrcmple
                0x00031c58                __aeabi_cdcmple
                0x00031c58                __aeabi_cdcmpeq
                0x00031c6c                __aeabi_dcmpeq
                0x00031c80                __aeabi_dcmplt
                0x00031c94                __aeabi_dcmple
                0x00031ca8                __aeabi_dcmpge
                0x00031cbc                __aeabi_dcmpgt
 .text          0x00031cd0        0x0 /opt/hisi-linux-nptl/arm-hisiv100-linux/bin/../lib/gcc/arm-hisiv100-linux-uclibcgnueabi/4.4.1/crtend.o
 .text          0x00031cd0        0x0 /opt/hisi-linux-nptl/arm-hisiv100-linux/bin/../target/usr/lib/crtn.o
 *(.gnu.warning)
 *(.glue_7t)
 .glue_7t       0x00000000        0x0 linker stubs
 *(.glue_7)
 .glue_7        0x00000000        0x0 linker stubs
 *(.vfp11_veneer)
 .vfp11_veneer  0x00000000        0x0 linker stubs
 *(.v4_bx)
 .v4_bx         0x00000000        0x0 linker stubs

.fini           0x00031cd0       0x10
 *(.fini)
 .fini          0x00031cd0        0xc /opt/hisi-linux-nptl/arm-hisiv100-linux/bin/../target/usr/lib/crti.o
                0x00031cd0                _fini
 .fini          0x00031cdc        0x4 /opt/hisi-linux-nptl/arm-hisiv100-linux/bin/../target/usr/lib/crtn.o
                0x00031ce0                PROVIDE (__etext, .)
                0x00031ce0                PROVIDE (_etext, .)
                0x00031ce0                PROVIDE (etext, .)

.rodata         0x00031ce0    0x367f0
 *(.rodata .rodata.* .gnu.linkonce.r.*)
 .rodata        0x00031ce0       0x18 main.o
 .rodata.str1.4
                0x00031cf8      0x1fc main.o
 .rodata        0x00031ef4       0x18 init.o
 .rodata.str1.4
                0x00031f0c      0x133 init.o
                                0x148 (size before relaxing)
 *fill*         0x0003203f        0x1 00
 .rodata.str1.4
                0x00032040       0x4e fvideo.o
                                 0x50 (size before relaxing)
 *fill*         0x0003208e        0x2 00
 .rodata        0x00032090       0x98 videoenc.o
 .rodata.str1.4
                0x00032128      0x772 videoenc.o
                                0x774 (size before relaxing)
 *fill*         0x0003289a        0x2 00
 .rodata        0x0003289c       0x30 dvr/i2c/i2c.o
 .rodata.str1.4
                0x000328cc      0x109 dvr/i2c/i2c.o
                                0x10c (size before relaxing)
 *fill*         0x000329d5        0x3 00
 .rodata.str1.4
                0x000329d8       0xdb dvr/sysreg/sys_reg_public.o
                                 0xdc (size before relaxing)
 *fill*         0x00032ab3        0x1 00
 .rodata        0x00032ab4      0x17c /opt/hisi-linux-nptl/arm-hisiv100-linux/bin/../target/usr/lib/libpthread.a(pthread_create.os)
                0x00032ad4                _thread_db_pthread_dtvp
                0x00032ae0                _thread_db_pthread_list
                0x00032aec                _thread_db_pthread_report_events
                0x00032af8                _thread_db_pthread_tid
                0x00032b04                _thread_db_pthread_start_routine
                0x00032b10                _thread_db_pthread_cancelhandling
                0x00032b1c                _thread_db_pthread_schedpolicy
                0x00032b28                _thread_db_pthread_schedparam_sched_priority
                0x00032b34                _thread_db_pthread_specific
                0x00032b40                _thread_db_pthread_eventbuf
                0x00032b4c                _thread_db_pthread_eventbuf_eventmask
                0x00032b58                _thread_db_pthread_eventbuf_eventmask_event_bits
                0x00032b64                _thread_db_pthread_nextevent
                0x00032b70                _thread_db_list_t_next
                0x00032b7c                _thread_db_list_t_prev
                0x00032b88                _thread_db_td_thr_events_t_event_bits
                0x00032b94                _thread_db_td_eventbuf_t_eventnum
                0x00032ba0                _thread_db_td_eventbuf_t_eventdata
                0x00032bac                _thread_db___nptl_nthreads
                0x00032bb8                _thread_db___nptl_last_event
                0x00032bc4                _thread_db___pthread_keys
                0x00032bd0                _thread_db_pthread_key_struct_seq
                0x00032bdc                _thread_db_pthread_key_struct_destr
                0x00032be8                _thread_db_pthread_key_data_seq
                0x00032bf4                _thread_db_pthread_key_data_data
                0x00032c00                _thread_db_pthread_key_data_level2_data
                0x00032c0c                _thread_db_link_map_l_tls_modid
                0x00032c18                _thread_db_dtv_dtv
                0x00032c24                _thread_db_dtv_t_pointer_val
 .rodata.cst4   0x00032c30       0x10 /opt/hisi-linux-nptl/arm-hisiv100-linux/bin/../target/usr/lib/libpthread.a(pthread_create.os)
                                 0x20 (size before relaxing)
                0x00032c30                _thread_db_sizeof_pthread
                0x00032c30                _thread_db_const_thread_area
                0x00032c34                _thread_db_sizeof_td_thr_events_t
                0x00032c34                _thread_db_sizeof_pthread_key_struct
                0x00032c34                _thread_db_sizeof_pthread_key_data
                0x00032c34                _thread_db_sizeof_list_t
                0x00032c38                _thread_db_sizeof_td_eventbuf_t
                0x00032c3c                _thread_db_sizeof_pthread_key_data_level2
 .rodata.cst4   0x00032c40        0x4 /opt/hisi-linux-nptl/arm-hisiv100-linux/bin/../target/usr/lib/libpthread.a(pthread_mutex_init.os)
 .rodata.str1.4
                0x00032c44        0x7 /opt/hisi-linux-nptl/arm-hisiv100-linux/bin/../target/usr/lib/libpthread.a(init.os)
                                  0x8 (size before relaxing)
 .rodata.str1.1
                0x00032c4b       0x1f /opt/hisi-linux-nptl/arm-hisiv100-linux/bin/../target/usr/lib/libpthread.a(unwind.os)
 *fill*         0x00032c6a        0x2 00
 .rodata        0x00032c6c      0x80c ./lib/libmpi.a(mpi_venc.o)
 .rodata.str1.4
                0x00033478      0x2e6 ./lib/libmpi.a(mpi_venc.o)
                                0x2e8 (size before relaxing)
 *fill*         0x0003375e        0x2 00
 .rodata        0x00033760      0x588 ./lib/libmpi.a(mpi_vi.o)
 .rodata.str1.4
                0x00033ce8       0xe3 ./lib/libmpi.a(mpi_vi.o)
                                 0xe4 (size before relaxing)
 .rodata.str1.1
                0x00033dcb       0x11 /opt/hisi-linux-nptl/arm-hisiv100-linux/bin/../target/usr/lib/libc.a(ssp.os)
 .rodata.str1.4
                0x00033ddc       0x26 /opt/hisi-linux-nptl/arm-hisiv100-linux/bin/../target/usr/lib/libc.a(ssp.os)
                                 0x28 (size before relaxing)
 .rodata.str1.1
                0x00033e02       0x33 /opt/hisi-linux-nptl/arm-hisiv100-linux/bin/../target/usr/lib/libc.a(__assert.os)
 *fill*         0x00033e35        0x3 00
 .rodata        0x00033e38       0x1c /opt/hisi-linux-nptl/arm-hisiv100-linux/bin/../target/usr/lib/libc.a(syslog.os)
 .rodata.str1.1
                0x00033e54       0x40 /opt/hisi-linux-nptl/arm-hisiv100-linux/bin/../target/usr/lib/libc.a(syslog.os)
 .rodata        0x00033e94       0x38 /opt/hisi-linux-nptl/arm-hisiv100-linux/bin/../target/usr/lib/libc.a(tzset.os)
 .rodata.str1.1
                0x00033ecc       0x1c /opt/hisi-linux-nptl/arm-hisiv100-linux/bin/../target/usr/lib/libc.a(tzset.os)
 .rodata        0x00033ee8       0x10 /opt/hisi-linux-nptl/arm-hisiv100-linux/bin/../target/usr/lib/libc.a(_time_localtime_tzi.os)
 .rodata        0x00033ef8       0x14 /opt/hisi-linux-nptl/arm-hisiv100-linux/bin/../target/usr/lib/libc.a(_vfprintf_internal.os)
 .rodata.str1.1
                0x00033f0c        0xd /opt/hisi-linux-nptl/arm-hisiv100-linux/bin/../target/usr/lib/libc.a(_vfprintf_internal.os)
 *fill*         0x00033f19        0x3 00
 .rodata.str1.4
                0x00033f1c       0x21 /opt/hisi-linux-nptl/arm-hisiv100-linux/bin/../target/usr/lib/libc.a(_ppfs_init.os)
                                 0x24 (size before relaxing)
 *fill*         0x00033f3d        0x3 00
 .rodata        0x00033f40       0x64 /opt/hisi-linux-nptl/arm-hisiv100-linux/bin/../target/usr/lib/libc.a(_ppfs_parsespec.os)
 .rodata.str1.4
                0x00033fa4       0x20 /opt/hisi-linux-nptl/arm-hisiv100-linux/bin/../target/usr/lib/libc.a(_ppfs_parsespec.os)
 .rodata        0x00033fc4       0x10 /opt/hisi-linux-nptl/arm-hisiv100-linux/bin/../target/usr/lib/libc.a(__xpg_strerror_r.os)
 .rodata        0x00033fd4        0x4 /opt/hisi-linux-nptl/arm-hisiv100-linux/bin/../target/usr/lib/libc.a(sysconf.os)
 .rodata.str1.1
                0x00033fd8       0x3b /opt/hisi-linux-nptl/arm-hisiv100-linux/bin/../target/usr/lib/libc.a(sysconf.os)
                                 0x3d (size before relaxing)
 .rodata.str1.1
                0x00034013        0xe /opt/hisi-linux-nptl/arm-hisiv100-linux/bin/../target/usr/lib/libc.a(libc-tls.os)
 .rodata.str1.1
                0x00034021       0x55 /opt/hisi-linux-nptl/arm-hisiv100-linux/bin/../target/usr/lib/libc.a(dl-tls.os)
 .rodata.str1.1
                0x00034076       0x17 /opt/hisi-linux-nptl/arm-hisiv100-linux/bin/../target/usr/lib/libc.a(__uClibc_main.os)
                                 0x18 (size before relaxing)
 *fill*         0x0003408d        0x3 00
 .rodata        0x00034090      0x300 /opt/hisi-linux-nptl/arm-hisiv100-linux/bin/../target/usr/lib/libc.a(__C_ctype_b.os)
 .rodata.str1.1
                0x00000000       0x17 /opt/hisi-linux-nptl/arm-hisiv100-linux/bin/../target/usr/lib/libc.a(parse_config.os)
                                  0x2 (size before relaxing)
 .rodata        0x00034390       0x20 /opt/hisi-linux-nptl/arm-hisiv100-linux/bin/../target/usr/lib/libc.a(_locale_init.os)
 .rodata.str1.1
                0x000343b0        0xe /opt/hisi-linux-nptl/arm-hisiv100-linux/bin/../target/usr/lib/libc.a(_locale_init.os)
 *fill*         0x000343be        0x2 00
 .rodata.str1.4
                0x000343c0        0xe /opt/hisi-linux-nptl/arm-hisiv100-linux/bin/../target/usr/lib/libc.a(_locale_init.os)
                                 0x10 (size before relaxing)
 *fill*         0x000343ce        0x2 00
 .rodata        0x000343d0       0x54 /opt/hisi-linux-nptl/arm-hisiv100-linux/bin/../target/usr/lib/libc.a(asctime_r.os)
 .rodata        0x00034424       0x20 /opt/hisi-linux-nptl/arm-hisiv100-linux/bin/../target/usr/lib/libc.a(_time_t2tm.os)
 .rodata.str1.4
                0x00034444        0x4 /opt/hisi-linux-nptl/arm-hisiv100-linux/bin/../target/usr/lib/libc.a(_time_t2tm.os)
 .rodata        0x00034448       0xa8 /opt/hisi-linux-nptl/arm-hisiv100-linux/bin/../target/usr/lib/libc.a(_fpmaxtostr.os)
 .rodata        0x000344f0      0xb5c /opt/hisi-linux-nptl/arm-hisiv100-linux/bin/../target/usr/lib/libc.a(_string_syserrmsgs.os)
                0x000344f0                _string_syserrmsgs
 .rodata        0x0003504c       0x10 /opt/hisi-linux-nptl/arm-hisiv100-linux/bin/../target/usr/lib/libc.a(opennameservers.os)
                0x0003504c                __local_nameserver
 .rodata.str1.1
                0x0003505c       0x43 /opt/hisi-linux-nptl/arm-hisiv100-linux/bin/../target/usr/lib/libc.a(opennameservers.os)
                                 0x45 (size before relaxing)
 *fill*         0x0003509f        0x1 00
 .rodata        0x000350a0    0x32e18 /opt/hisi-linux-nptl/arm-hisiv100-linux/bin/../target/usr/lib/libc.a(locale_data.os)
 .rodata        0x00067eb8      0x300 /opt/hisi-linux-nptl/arm-hisiv100-linux/bin/../target/usr/lib/libc.a(__C_ctype_tolower.os)
 .rodata        0x000681b8      0x300 /opt/hisi-linux-nptl/arm-hisiv100-linux/bin/../target/usr/lib/libc.a(__C_ctype_toupper.os)
 .rodata.str1.1
                0x000684b8        0x3 /opt/hisi-linux-nptl/arm-hisiv100-linux/bin/../target/usr/lib/libc.a(ntop.os)
 *fill*         0x000684bb        0x1 00
 .rodata.str1.4
                0x000684bc       0x14 /opt/hisi-linux-nptl/arm-hisiv100-linux/bin/../target/usr/lib/libc.a(ntop.os)

.rodata1
 *(.rodata1)

.ARM.extab      0x000684d0       0x7c
 *(.ARM.extab* .gnu.linkonce.armextab.*)
 .ARM.extab     0x000684d0       0x1c /opt/hisi-linux-nptl/arm-hisiv100-linux/bin/../target/usr/lib/libpthread.a(pthread_once.os)
 .ARM.extab     0x000684ec       0x18 /opt/hisi-linux-nptl/arm-hisiv100-linux/bin/../target/usr/lib/libpthread.a(cancellation.os)
 .ARM.extab     0x00068504        0x0 /opt/hisi-linux-nptl/arm-hisiv100-linux/bin/../target/usr/lib/libpthread.a(init.os)
 .ARM.extab     0x00068504        0x0 /opt/hisi-linux-nptl/arm-hisiv100-linux/bin/../target/usr/lib/libpthread.a(pthread_cancel.os)
 .ARM.extab     0x00068504        0xc /opt/hisi-linux-nptl/arm-hisiv100-linux/bin/../target/usr/lib/libpthread.a(unwind.os)
 .ARM.extab     0x00068510       0x24 /opt/hisi-linux-nptl/arm-hisiv100-linux/bin/../lib/gcc/arm-hisiv100-linux-uclibcgnueabi/4.4.1/libgcc_eh.a(unwind-arm.o)
 .ARM.extab     0x00068534        0x0 /opt/hisi-linux-nptl/arm-hisiv100-linux/bin/../lib/gcc/arm-hisiv100-linux-uclibcgnueabi/4.4.1/libgcc_eh.a(pr-support.o)
 .ARM.extab     0x00068534        0x0 /opt/hisi-linux-nptl/arm-hisiv100-linux/bin/../lib/gcc/arm-hisiv100-linux-uclibcgnueabi/4.4.1/libgcc_eh.a(unwind-c.o)
 .ARM.extab     0x00068534       0x18 /opt/hisi-linux-nptl/arm-hisiv100-linux/bin/../target/usr/lib/libc.a(sigrestorer.os)
 .ARM.extab     0x0006854c        0x0 /opt/hisi-linux-nptl/arm-hisiv100-linux/bin/../target/usr/lib/libc.a(close.os)
 .ARM.extab     0x0006854c        0x0 /opt/hisi-linux-nptl/arm-hisiv100-linux/bin/../target/usr/lib/libc.a(open.os)
 .ARM.extab     0x0006854c        0x0 /opt/hisi-linux-nptl/arm-hisiv100-linux/bin/../target/usr/lib/libc.a(write.os)
 .ARM.extab     0x0006854c        0x0 /opt/hisi-linux-nptl/arm-hisiv100-linux/bin/../target/usr/lib/libc.a(read.os)
 .ARM.extab     0x0006854c        0x0 /opt/hisi-linux-nptl/arm-hisiv100-linux/bin/../target/usr/lib/libc.a(libc-cancellation.os)
                0x0006854c                PROVIDE (__exidx_start, .)

.ARM.exidx      0x0006854c      0x178
 *(.ARM.exidx* .gnu.linkonce.armexidx.*)
 .ARM.exidx     0x0006854c       0x18 /opt/hisi-linux-nptl/arm-hisiv100-linux/bin/../target/usr/lib/libpthread.a(pthread_once.os)
                                 0x10 (size before relaxing)
 .ARM.exidx     0x00068564       0x18 /opt/hisi-linux-nptl/arm-hisiv100-linux/bin/../target/usr/lib/libpthread.a(cancellation.os)
                                 0x10 (size before relaxing)
 .ARM.exidx     0x0006857c       0x20 /opt/hisi-linux-nptl/arm-hisiv100-linux/bin/../target/usr/lib/libpthread.a(init.os)
                                 0x18 (size before relaxing)
 .ARM.exidx     0x0006859c        0x8 /opt/hisi-linux-nptl/arm-hisiv100-linux/bin/../target/usr/lib/libpthread.a(pthread_cancel.os)
 .ARM.exidx     0x000685a4       0x20 /opt/hisi-linux-nptl/arm-hisiv100-linux/bin/../target/usr/lib/libpthread.a(unwind.os)
 .ARM.exidx     0x000685c4       0x70 /opt/hisi-linux-nptl/arm-hisiv100-linux/bin/../lib/gcc/arm-hisiv100-linux-uclibcgnueabi/4.4.1/libgcc_eh.a(unwind-arm.o)
                                 0x98 (size before relaxing)
 .ARM.exidx     0x00068634       0x18 /opt/hisi-linux-nptl/arm-hisiv100-linux/bin/../lib/gcc/arm-hisiv100-linux-uclibcgnueabi/4.4.1/libgcc_eh.a(pr-support.o)
                                 0x30 (size before relaxing)
 .ARM.exidx     0x0006864c       0x10 /opt/hisi-linux-nptl/arm-hisiv100-linux/bin/../lib/gcc/arm-hisiv100-linux-uclibcgnueabi/4.4.1/libgcc_eh.a(unwind-c.o)
                                  0x8 (size before relaxing)
 .ARM.exidx     0x0006865c       0x18 /opt/hisi-linux-nptl/arm-hisiv100-linux/bin/../target/usr/lib/libc.a(sigrestorer.os)
                                 0x10 (size before relaxing)
 .ARM.exidx     0x00068674       0x10 /opt/hisi-linux-nptl/arm-hisiv100-linux/bin/../target/usr/lib/libc.a(close.os)
 .ARM.exidx     0x00068684       0x10 /opt/hisi-linux-nptl/arm-hisiv100-linux/bin/../target/usr/lib/libc.a(open.os)
 .ARM.exidx     0x00068694       0x10 /opt/hisi-linux-nptl/arm-hisiv100-linux/bin/../target/usr/lib/libc.a(write.os)
 .ARM.exidx     0x000686a4       0x10 /opt/hisi-linux-nptl/arm-hisiv100-linux/bin/../target/usr/lib/libc.a(read.os)
 .ARM.exidx     0x000686b4       0x10 /opt/hisi-linux-nptl/arm-hisiv100-linux/bin/../target/usr/lib/libc.a(libc-cancellation.os)
                0x000686c4                PROVIDE (__exidx_end, .)

.eh_frame_hdr
 *(.eh_frame_hdr)

.eh_frame
 *(.eh_frame)

.gcc_except_table
 *(.gcc_except_table .gcc_except_table.*)
                0x000686c4                . = (ALIGN (0x8000) - ((0x8000 - .) & 0x7fff))
                0x00071000                . = (0x8000 DATA_SEGMENT_ALIGN 0x1000)

.eh_frame
 *(.eh_frame)

.gcc_except_table
 *(.gcc_except_table .gcc_except_table.*)

.tdata          0x00071000        0x4
 *(.tdata .tdata.* .gnu.linkonce.td.*)
 .tdata         0x00071000        0x4 /opt/hisi-linux-nptl/arm-hisiv100-linux/bin/../target/usr/lib/libc.a(res_init.os)
                0x00071000                __libc_resp
                0x00071000                __resp

.tbss           0x00071004        0x8
 *(.tbss .tbss.* .gnu.linkonce.tb.*)
 .tbss          0x00071004        0x8 /opt/hisi-linux-nptl/arm-hisiv100-linux/bin/../target/usr/lib/libc.a(errno.os)
                0x00071004                errno
                0x00071004                __libc_errno
                0x00071008                __libc_h_errno
                0x00071008                h_errno
 *(.tcommon)

.preinit_array  0x00071004        0x0
                0x00071004                PROVIDE (__preinit_array_start, .)
 *(.preinit_array)
                0x00071004                PROVIDE (__preinit_array_end, .)

.init_array     0x00071004        0x4
                0x00071004                PROVIDE (__init_array_start, .)
 *(SORT(.init_array.*))
 *(.init_array)
 .init_array    0x00071004        0x4 /opt/hisi-linux-nptl/arm-hisiv100-linux/bin/../lib/gcc/arm-hisiv100-linux-uclibcgnueabi/4.4.1/crtbeginT.o
                0x00071008                PROVIDE (__init_array_end, .)

.fini_array     0x00071008        0x4
                0x00071008                PROVIDE (__fini_array_start, .)
 *(SORT(.fini_array.*))
 *(.fini_array)
 .fini_array    0x00071008        0x4 /opt/hisi-linux-nptl/arm-hisiv100-linux/bin/../lib/gcc/arm-hisiv100-linux-uclibcgnueabi/4.4.1/crtbeginT.o
                0x0007100c                PROVIDE (__fini_array_end, .)

.ctors
 *crtbegin.o(.ctors)
 *crtbegin?.o(.ctors)
 *(EXCLUDE_FILE(*crtend?.o *crtend.o) .ctors)
 *(SORT(.ctors.*))
 *(.ctors)

.dtors
 *crtbegin.o(.dtors)
 *crtbegin?.o(.dtors)
 *(EXCLUDE_FILE(*crtend?.o *crtend.o) .dtors)
 *(SORT(.dtors.*))
 *(.dtors)

.jcr            0x0007100c        0x4
 *(.jcr)
 .jcr           0x0007100c        0x0 /opt/hisi-linux-nptl/arm-hisiv100-linux/bin/../lib/gcc/arm-hisiv100-linux-uclibcgnueabi/4.4.1/crtbeginT.o
 .jcr           0x0007100c        0x4 /opt/hisi-linux-nptl/arm-hisiv100-linux/bin/../lib/gcc/arm-hisiv100-linux-uclibcgnueabi/4.4.1/crtend.o

.data.rel.ro    0x00071010        0x8
 *(.data.rel.ro.local* .gnu.linkonce.d.rel.ro.local.*)
 *(.data.rel.ro* .gnu.linkonce.d.rel.ro.*)
 .data.rel.ro   0x00071010        0x8 /opt/hisi-linux-nptl/arm-hisiv100-linux/bin/../target/usr/lib/libc.a(_time_localtime_tzi.os)
                0x00071010                ll_tzname_UTC

.dynamic
 *(.dynamic)
                0x00071018                . = (. DATA_SEGMENT_RELRO_END 0x0)

.got            0x00071018       0xd4
 *(.got.plt)
 .got.plt       0x00071018        0xc /opt/hisi-linux-nptl/arm-hisiv100-linux/bin/../target/usr/lib/libpthread.a(pthread_create.os)
                0x00071018                _GLOBAL_OFFSET_TABLE_
 *(.igot.plt)
 *(.got)
 .got           0x00071024       0xc8 /opt/hisi-linux-nptl/arm-hisiv100-linux/bin/../target/usr/lib/libpthread.a(pthread_create.os)
 *(.igot)

.data           0x000710ec     0x1e98
                0x000710ec                __data_start = .
 *(.data .data.* .gnu.linkonce.d.*)
 .data          0x000710ec        0x4 /opt/hisi-linux-nptl/arm-hisiv100-linux/bin/../target/usr/lib/crt1.o
                0x000710ec                data_start
 .data          0x000710f0        0x0 /opt/hisi-linux-nptl/arm-hisiv100-linux/bin/../target/usr/lib/crti.o
 .data          0x000710f0        0x4 /opt/hisi-linux-nptl/arm-hisiv100-linux/bin/../lib/gcc/arm-hisiv100-linux-uclibcgnueabi/4.4.1/crtbeginT.o
                0x000710f0                __dso_handle
 .data          0x000710f4        0x0 main.o
 .data          0x000710f4        0x4 init.o
                0x000710f4                g_videosize
 .data          0x000710f8     0x1c00 fvideo.o
                0x000710f8                NVP6124_B0_30P_Buf
                0x000711f8                NVP6124_B1_30P_Buf
                0x000712f8                NVP6124_B2_30P_Buf
                0x000713f8                NVP6124_B3_30P_Buf
                0x000714f8                NVP6124_B4_30P_Buf
                0x000715f8                NVP6124_B5_30P_Buf
                0x000716f8                NVP6124_B6_30P_Buf
                0x000717f8                NVP6124_B7_30P_Buf
                0x000718f8                NVP6124_B8_30P_Buf
                0x000719f8                NVP6124_B9_30P_Buf
                0x00071af8                NVP6124_BA_30P_Buf
                0x00071bf8                NVP6124_BB_30P_Buf
                0x00071cf8                NVP6124_B0_25P_Buf
                0x00071df8                NVP6124_B1_25P_Buf
                0x00071ef8                NVP6124_B2_25P_Buf
                0x00071ff8                NVP6124_B3_25P_Buf
                0x000720f8                NVP6124_B4_25P_Buf
                0x000721f8                NVP6124_B5_25P_Buf
                0x000722f8                NVP6124_B6_25P_Buf
                0x000723f8                NVP6124_B7_25P_Buf
                0x000724f8                NVP6124_B8_25P_Buf
                0x000725f8                NVP6124_B9_25P_Buf
                0x000726f8                NVP6124_BA_25P_Buf
                0x000727f8                NVP6124_BB_25P_Buf
                0x000728f8                NVP6124_B0_NTSC_Buf
                0x000729f8                NVP6124_B5_NTSC_Buf
                0x00072af8                NVP6124_B0_PAL_Buf
                0x00072bf8                NVP6124_B5_PAL_Buf
 .data          0x00072cf8        0x0 videoenc.o
 .data          0x00072cf8        0xc dvr/i2c/i2c.o
 .data          0x00072d04        0x4 dvr/sysreg/sys_reg_public.o
 .data          0x00072d08        0x4 /opt/hisi-linux-nptl/arm-hisiv100-linux/bin/../target/usr/lib/libpthread.a(pthread_create.os)
                0x00072d08                __nptl_nthreads
 .data.rel.local
                0x00072d0c       0x10 /opt/hisi-linux-nptl/arm-hisiv100-linux/bin/../target/usr/lib/libpthread.a(pthread_create.os)
 .data          0x00072d1c        0x0 /opt/hisi-linux-nptl/arm-hisiv100-linux/bin/../target/usr/lib/libpthread.a(pthread_getspecific.os)
 .data          0x00072d1c        0x0 /opt/hisi-linux-nptl/arm-hisiv100-linux/bin/../target/usr/lib/libpthread.a(pthread_key_create.os)
 .data          0x00072d1c        0x0 /opt/hisi-linux-nptl/arm-hisiv100-linux/bin/../target/usr/lib/libpthread.a(pthread_key_delete.os)
 .data          0x00072d1c        0x0 /opt/hisi-linux-nptl/arm-hisiv100-linux/bin/../target/usr/lib/libpthread.a(pthread_mutex_destroy.os)
 .data          0x00072d1c        0x0 /opt/hisi-linux-nptl/arm-hisiv100-linux/bin/../target/usr/lib/libpthread.a(pthread_mutex_init.os)
 .data          0x00072d1c        0x0 /opt/hisi-linux-nptl/arm-hisiv100-linux/bin/../target/usr/lib/libpthread.a(pthread_mutex_lock.os)
 .data          0x00072d1c        0x0 /opt/hisi-linux-nptl/arm-hisiv100-linux/bin/../target/usr/lib/libpthread.a(pthread_mutex_trylock.os)
 .data          0x00072d1c        0x0 /opt/hisi-linux-nptl/arm-hisiv100-linux/bin/../target/usr/lib/libpthread.a(pthread_mutex_unlock.os)
 .data          0x00072d1c        0x0 /opt/hisi-linux-nptl/arm-hisiv100-linux/bin/../target/usr/lib/libpthread.a(pthread_once.os)
 .data          0x00072d1c        0x0 /opt/hisi-linux-nptl/arm-hisiv100-linux/bin/../target/usr/lib/libpthread.a(pthread_setspecific.os)
 .data          0x00072d1c        0x8 /opt/hisi-linux-nptl/arm-hisiv100-linux/bin/../target/usr/lib/libpthread.a(tpp.os)
                0x00072d1c                __sched_fifo_max_prio
                0x00072d20                __sched_fifo_min_prio
 .data          0x00072d24        0x4 /opt/hisi-linux-nptl/arm-hisiv100-linux/bin/../target/usr/lib/libpthread.a(vars.os)
                0x00072d24                __default_stacksize
 .data          0x00072d28        0x0 /opt/hisi-linux-nptl/arm-hisiv100-linux/bin/../target/usr/lib/libpthread.a(aeabi_read_tp.os)
 .data          0x00072d28        0x0 /opt/hisi-linux-nptl/arm-hisiv100-linux/bin/../target/usr/lib/libpthread.a(cancellation.os)
 .data          0x00072d28        0x0 /opt/hisi-linux-nptl/arm-hisiv100-linux/bin/../target/usr/lib/libpthread.a(cleanup_defer_compat.os)
 .data          0x00072d28        0x0 /opt/hisi-linux-nptl/arm-hisiv100-linux/bin/../target/usr/lib/libpthread.a(events.os)
 .data          0x00072d28        0x0 /opt/hisi-linux-nptl/arm-hisiv100-linux/bin/../target/usr/lib/libpthread.a(init.os)
 .data          0x00072d28        0x0 /opt/hisi-linux-nptl/arm-hisiv100-linux/bin/../target/usr/lib/libpthread.a(lowlevellock.os)
 .data          0x00072d28        0x0 /opt/hisi-linux-nptl/arm-hisiv100-linux/bin/../target/usr/lib/libpthread.a(lowlevelrobustlock.os)
 .data          0x00072d28        0x0 /opt/hisi-linux-nptl/arm-hisiv100-linux/bin/../target/usr/lib/libpthread.a(pthread_cancel.os)
 .data          0x00072d28        0x0 /opt/hisi-linux-nptl/arm-hisiv100-linux/bin/../target/usr/lib/libpthread.a(unwind.os)
 .data          0x00072d28        0x0 /opt/hisi-linux-nptl/arm-hisiv100-linux/bin/../target/usr/lib/libpthread.a(pt-longjmp.os)
 .data          0x00072d28        0x8 ./lib/libmpi.a(mpi_venc.o)
                0x00072d2c                s32VencMemFd
 .data          0x00072d30       0x80 ./lib/libmpi.a(mpi_vi.o)
 .data          0x00072db0        0x0 ./lib/libmem.a(memcpy_back.o)
 .data          0x00072db0        0x0 ./lib/libmem.a(memset1.o)
 .data          0x00072db0        0x0 ./lib/libmem.a(memcpy1.o)
 .data          0x00072db0        0x0 /opt/hisi-linux-nptl/arm-hisiv100-linux/bin/../lib/gcc/arm-hisiv100-linux-uclibcgnueabi/4.4.1/libgcc.a(_udivsi3.o)
 .data          0x00072db0        0x0 /opt/hisi-linux-nptl/arm-hisiv100-linux/bin/../lib/gcc/arm-hisiv100-linux-uclibcgnueabi/4.4.1/libgcc.a(_arm_addsubdf3.o)
 .data          0x00072db0        0x0 /opt/hisi-linux-nptl/arm-hisiv100-linux/bin/../lib/gcc/arm-hisiv100-linux-uclibcgnueabi/4.4.1/libgcc.a(_arm_muldivdf3.o)
 .data          0x00072db0        0x0 /opt/hisi-linux-nptl/arm-hisiv100-linux/bin/../lib/gcc/arm-hisiv100-linux-uclibcgnueabi/4.4.1/libgcc.a(_arm_fixunsdfsi.o)
 .data          0x00072db0        0x0 /opt/hisi-linux-nptl/arm-hisiv100-linux/bin/../lib/gcc/arm-hisiv100-linux-uclibcgnueabi/4.4.1/libgcc.a(_dvmd_lnx.o)
 .data          0x00072db0        0x0 /opt/hisi-linux-nptl/arm-hisiv100-linux/bin/../lib/gcc/arm-hisiv100-linux-uclibcgnueabi/4.4.1/libgcc_eh.a(unwind-arm.o)
 .data          0x00072db0        0x0 /opt/hisi-linux-nptl/arm-hisiv100-linux/bin/../lib/gcc/arm-hisiv100-linux-uclibcgnueabi/4.4.1/libgcc_eh.a(libunwind.o)
 .data          0x00072db0        0x0 /opt/hisi-linux-nptl/arm-hisiv100-linux/bin/../lib/gcc/arm-hisiv100-linux-uclibcgnueabi/4.4.1/libgcc_eh.a(pr-support.o)
 .data          0x00072db0        0x0 /opt/hisi-linux-nptl/arm-hisiv100-linux/bin/../lib/gcc/arm-hisiv100-linux-uclibcgnueabi/4.4.1/libgcc_eh.a(unwind-c.o)
 .data          0x00072db0        0x0 /opt/hisi-linux-nptl/arm-hisiv100-linux/bin/../target/usr/lib/libc.a(sigaction.os)
 .data          0x00072db0        0x0 /opt/hisi-linux-nptl/arm-hisiv100-linux/bin/../target/usr/lib/libc.a(mmap.os)
 .data          0x00072db0        0x0 /opt/hisi-linux-nptl/arm-hisiv100-linux/bin/../target/usr/lib/libc.a(bsd-_setjmp.os)
 .data          0x00072db0        0x0 /opt/hisi-linux-nptl/arm-hisiv100-linux/bin/../target/usr/lib/libc.a(sigrestorer.os)
 .data          0x00072db0        0x0 /opt/hisi-linux-nptl/arm-hisiv100-linux/bin/../target/usr/lib/libc.a(_exit.os)
 .data          0x00072db0        0x0 /opt/hisi-linux-nptl/arm-hisiv100-linux/bin/../target/usr/lib/libc.a(getpagesize.os)
 .data          0x00072db0        0x0 /opt/hisi-linux-nptl/arm-hisiv100-linux/bin/../target/usr/lib/libc.a(getrlimit.os)
 .data          0x00072db0        0x0 /opt/hisi-linux-nptl/arm-hisiv100-linux/bin/../target/usr/lib/libc.a(gettimeofday.os)
 .data          0x00072db0        0x0 /opt/hisi-linux-nptl/arm-hisiv100-linux/bin/../target/usr/lib/libc.a(ioctl.os)
 .data          0x00072db0        0x0 /opt/hisi-linux-nptl/arm-hisiv100-linux/bin/../target/usr/lib/libc.a(longjmp.os)
 .data          0x00072db0        0x0 /opt/hisi-linux-nptl/arm-hisiv100-linux/bin/../target/usr/lib/libc.a(madvise.os)
 .data          0x00072db0        0x0 /opt/hisi-linux-nptl/arm-hisiv100-linux/bin/../target/usr/lib/libc.a(mprotect.os)
 .data          0x00072db0        0x0 /opt/hisi-linux-nptl/arm-hisiv100-linux/bin/../target/usr/lib/libc.a(munmap.os)
 .data          0x00072db0        0x0 /opt/hisi-linux-nptl/arm-hisiv100-linux/bin/../target/usr/lib/libc.a(sched_getparam.os)
 .data          0x00072db0        0x0 /opt/hisi-linux-nptl/arm-hisiv100-linux/bin/../target/usr/lib/libc.a(sched_get_priority_max.os)
 .data          0x00072db0        0x0 /opt/hisi-linux-nptl/arm-hisiv100-linux/bin/../target/usr/lib/libc.a(sched_get_priority_min.os)
 .data          0x00072db0        0x0 /opt/hisi-linux-nptl/arm-hisiv100-linux/bin/../target/usr/lib/libc.a(sched_getscheduler.os)
 .data          0x00072db0        0x0 /opt/hisi-linux-nptl/arm-hisiv100-linux/bin/../target/usr/lib/libc.a(sched_setscheduler.os)
 .data          0x00072db0        0x0 /opt/hisi-linux-nptl/arm-hisiv100-linux/bin/../target/usr/lib/libc.a(sigprocmask.os)
 .data          0x00072db0        0x0 /opt/hisi-linux-nptl/arm-hisiv100-linux/bin/../target/usr/lib/libc.a(ssp.os)
 .data          0x00072db0        0x0 /opt/hisi-linux-nptl/arm-hisiv100-linux/bin/../target/usr/lib/libc.a(stat.os)
 .data          0x00072db0        0x0 /opt/hisi-linux-nptl/arm-hisiv100-linux/bin/../target/usr/lib/libc.a(__syscall_rt_sigaction.os)
 .data          0x00072db0        0x0 /opt/hisi-linux-nptl/arm-hisiv100-linux/bin/../target/usr/lib/libc.a(xstatconv.os)
 .data          0x00072db0        0x0 /opt/hisi-linux-nptl/arm-hisiv100-linux/bin/../target/usr/lib/libc.a(__assert.os)
 .data          0x00072db0        0x0 /opt/hisi-linux-nptl/arm-hisiv100-linux/bin/../target/usr/lib/libc.a(errno.os)
 .data          0x00072db0        0x0 /opt/hisi-linux-nptl/arm-hisiv100-linux/bin/../target/usr/lib/libc.a(__errno_location.os)
 .data          0x00072db0        0xc /opt/hisi-linux-nptl/arm-hisiv100-linux/bin/../target/usr/lib/libc.a(syslog.os)
 .data.rel.local
                0x00072dbc        0x4 /opt/hisi-linux-nptl/arm-hisiv100-linux/bin/../target/usr/lib/libc.a(syslog.os)
 .data          0x00072dc0        0x0 /opt/hisi-linux-nptl/arm-hisiv100-linux/bin/../target/usr/lib/libc.a(ctime.os)
 .data          0x00072dc0        0x0 /opt/hisi-linux-nptl/arm-hisiv100-linux/bin/../target/usr/lib/libc.a(localtime_r.os)
 .data          0x00072dc0       0x18 /opt/hisi-linux-nptl/arm-hisiv100-linux/bin/../target/usr/lib/libc.a(tzset.os)
                0x00072dc0                _time_tzlock
 .data.rel.local
                0x00072dd8        0x8 /opt/hisi-linux-nptl/arm-hisiv100-linux/bin/../target/usr/lib/libc.a(tzset.os)
                0x00072dd8                tzname
 .data          0x00072de0        0x8 /opt/hisi-linux-nptl/arm-hisiv100-linux/bin/../target/usr/lib/libc.a(_time_localtime_tzi.os)
                0x00072de0                ll_tzname_UNKNOWN
 .data          0x00072de8        0x0 /opt/hisi-linux-nptl/arm-hisiv100-linux/bin/../target/usr/lib/libc.a(fclose.os)
 .data          0x00072de8        0x0 /opt/hisi-linux-nptl/arm-hisiv100-linux/bin/../target/usr/lib/libc.a(fopen.os)
 .data          0x00072de8        0x0 /opt/hisi-linux-nptl/arm-hisiv100-linux/bin/../target/usr/lib/libc.a(puts.os)
 .data          0x00072de8        0x0 /opt/hisi-linux-nptl/arm-hisiv100-linux/bin/../target/usr/lib/libc.a(printf.os)
 .data          0x00072de8        0x0 /opt/hisi-linux-nptl/arm-hisiv100-linux/bin/../target/usr/lib/libc.a(fprintf.os)
 .data          0x00072de8        0x0 /opt/hisi-linux-nptl/arm-hisiv100-linux/bin/../target/usr/lib/libc.a(snprintf.os)
 .data          0x00072de8        0x0 /opt/hisi-linux-nptl/arm-hisiv100-linux/bin/../target/usr/lib/libc.a(sprintf.os)
 .data          0x00072de8        0x0 /opt/hisi-linux-nptl/arm-hisiv100-linux/bin/../target/usr/lib/libc.a(vsnprintf.os)
 .data          0x00072de8        0x0 /opt/hisi-linux-nptl/arm-hisiv100-linux/bin/../target/usr/lib/libc.a(_fopen.os)
 .data          0x00072de8        0x4 /opt/hisi-linux-nptl/arm-hisiv100-linux/bin/../target/usr/lib/libc.a(_stdio.os)
                0x00072de8                _stdio_user_locking
 .data.rel.local
                0x00072dec       0x18 /opt/hisi-linux-nptl/arm-hisiv100-linux/bin/../target/usr/lib/libc.a(_stdio.os)
                0x00072dec                stdin
                0x00072df0                stdout
                0x00072df4                stderr
                0x00072df8                __stdin
                0x00072dfc                __stdout
                0x00072e00                _stdio_openlist
 .data.rel      0x00072e04      0x108 /opt/hisi-linux-nptl/arm-hisiv100-linux/bin/../target/usr/lib/libc.a(_stdio.os)
 .data          0x00072f0c        0x0 /opt/hisi-linux-nptl/arm-hisiv100-linux/bin/../target/usr/lib/libc.a(_wcommit.os)
 .data          0x00072f0c        0x0 /opt/hisi-linux-nptl/arm-hisiv100-linux/bin/../target/usr/lib/libc.a(_cs_funcs.os)
 .data          0x00072f0c        0x0 /opt/hisi-linux-nptl/arm-hisiv100-linux/bin/../target/usr/lib/libc.a(vfprintf.os)
 .data          0x00072f0c        0x0 /opt/hisi-linux-nptl/arm-hisiv100-linux/bin/../target/usr/lib/libc.a(_vfprintf_internal.os)
 .data          0x00072f0c        0x0 /opt/hisi-linux-nptl/arm-hisiv100-linux/bin/../target/usr/lib/libc.a(_ppfs_init.os)
 .data          0x00072f0c        0x0 /opt/hisi-linux-nptl/arm-hisiv100-linux/bin/../target/usr/lib/libc.a(_ppfs_prepargs.os)
 .data          0x00072f0c        0x0 /opt/hisi-linux-nptl/arm-hisiv100-linux/bin/../target/usr/lib/libc.a(_ppfs_setargs.os)
 .data          0x00072f0c        0x0 /opt/hisi-linux-nptl/arm-hisiv100-linux/bin/../target/usr/lib/libc.a(_ppfs_parsespec.os)
 .data.rel.local
                0x00072f0c        0x4 /opt/hisi-linux-nptl/arm-hisiv100-linux/bin/../target/usr/lib/libc.a(_ppfs_parsespec.os)
                0x00072f0c                _custom_printf_spec
 .data          0x00072f10        0x0 /opt/hisi-linux-nptl/arm-hisiv100-linux/bin/../target/usr/lib/libc.a(fwrite.os)
 .data          0x00072f10        0x0 /opt/hisi-linux-nptl/arm-hisiv100-linux/bin/../target/usr/lib/libc.a(fflush_unlocked.os)
 .data          0x00072f10        0x0 /opt/hisi-linux-nptl/arm-hisiv100-linux/bin/../target/usr/lib/libc.a(fputc_unlocked.os)
 .data          0x00072f10        0x0 /opt/hisi-linux-nptl/arm-hisiv100-linux/bin/../target/usr/lib/libc.a(fputs_unlocked.os)
 .data          0x00072f10        0x0 /opt/hisi-linux-nptl/arm-hisiv100-linux/bin/../target/usr/lib/libc.a(fwrite_unlocked.os)
 .data          0x00072f10        0x0 /opt/hisi-linux-nptl/arm-hisiv100-linux/bin/../target/usr/lib/libc.a(memcpy.os)
 .data          0x00072f10        0x0 /opt/hisi-linux-nptl/arm-hisiv100-linux/bin/../target/usr/lib/libc.a(memmove.os)
 .data          0x00072f10        0x0 /opt/hisi-linux-nptl/arm-hisiv100-linux/bin/../target/usr/lib/libc.a(memset.os)
 .data          0x00072f10        0x0 /opt/hisi-linux-nptl/arm-hisiv100-linux/bin/../target/usr/lib/libc.a(strcmp.os)
 .data          0x00072f10        0x0 /opt/hisi-linux-nptl/arm-hisiv100-linux/bin/../target/usr/lib/libc.a(strlen.os)
 .data          0x00072f10        0x0 /opt/hisi-linux-nptl/arm-hisiv100-linux/bin/../target/usr/lib/libc.a(mempcpy.os)
 .data          0x00072f10        0x0 /opt/hisi-linux-nptl/arm-hisiv100-linux/bin/../target/usr/lib/libc.a(strchr.os)
 .data          0x00072f10        0x0 /opt/hisi-linux-nptl/arm-hisiv100-linux/bin/../target/usr/lib/libc.a(strcpy.os)
 .data          0x00072f10        0x0 /opt/hisi-linux-nptl/arm-hisiv100-linux/bin/../target/usr/lib/libc.a(strncmp.os)
 .data          0x00072f10        0x0 /opt/hisi-linux-nptl/arm-hisiv100-linux/bin/../target/usr/lib/libc.a(strncpy.os)
 .data          0x00072f10        0x0 /opt/hisi-linux-nptl/arm-hisiv100-linux/bin/../target/usr/lib/libc.a(strnlen.os)
 .data          0x00072f10        0x0 /opt/hisi-linux-nptl/arm-hisiv100-linux/bin/../target/usr/lib/libc.a(__glibc_strerror_r.os)
 .data          0x00072f10        0x0 /opt/hisi-linux-nptl/arm-hisiv100-linux/bin/../target/usr/lib/libc.a(strerror.os)
 .data          0x00072f10        0x0 /opt/hisi-linux-nptl/arm-hisiv100-linux/bin/../target/usr/lib/libc.a(__xpg_strerror_r.os)
 .data          0x00072f10        0x0 /opt/hisi-linux-nptl/arm-hisiv100-linux/bin/../target/usr/lib/libc.a(isatty.os)
 .data          0x00072f10        0x0 /opt/hisi-linux-nptl/arm-hisiv100-linux/bin/../target/usr/lib/libc.a(tcgetattr.os)
 .data          0x00072f10        0x0 /opt/hisi-linux-nptl/arm-hisiv100-linux/bin/../target/usr/lib/libc.a(res_init.os)
 .data          0x00072f10        0x0 /opt/hisi-linux-nptl/arm-hisiv100-linux/bin/../target/usr/lib/libc.a(connect.os)
 .data          0x00072f10        0x0 /opt/hisi-linux-nptl/arm-hisiv100-linux/bin/../target/usr/lib/libc.a(send.os)
 .data          0x00072f10        0x0 /opt/hisi-linux-nptl/arm-hisiv100-linux/bin/../target/usr/lib/libc.a(socket.os)
 .data          0x00072f10       0x18 /opt/hisi-linux-nptl/arm-hisiv100-linux/bin/../target/usr/lib/libc.a(malloc.os)
                0x00072f10                __malloc_lock
 .data          0x00072f28        0x0 /opt/hisi-linux-nptl/arm-hisiv100-linux/bin/../target/usr/lib/libc.a(calloc.os)
 .data          0x00072f28        0x0 /opt/hisi-linux-nptl/arm-hisiv100-linux/bin/../target/usr/lib/libc.a(free.os)
 .data          0x00072f28       0x18 /opt/hisi-linux-nptl/arm-hisiv100-linux/bin/../target/usr/lib/libc.a(abort.os)
 .data          0x00072f40        0x0 /opt/hisi-linux-nptl/arm-hisiv100-linux/bin/../target/usr/lib/libc.a(getenv.os)
 .data          0x00072f40       0x18 /opt/hisi-linux-nptl/arm-hisiv100-linux/bin/../target/usr/lib/libc.a(exit.os)
                0x00072f40                __atexit_lock
 .data          0x00072f58        0x0 /opt/hisi-linux-nptl/arm-hisiv100-linux/bin/../target/usr/lib/libc.a(sysconf.os)
 .data          0x00072f58        0x0 /opt/hisi-linux-nptl/arm-hisiv100-linux/bin/../target/usr/lib/libc.a(clone.os)
 .data          0x00072f58        0x0 /opt/hisi-linux-nptl/arm-hisiv100-linux/bin/../target/usr/lib/libc.a(libc_pthread_init.os)
 .data          0x00072f58        0x0 /opt/hisi-linux-nptl/arm-hisiv100-linux/bin/../target/usr/lib/libc.a(libc_multiple_threads.os)
 .data          0x00072f58        0x0 /opt/hisi-linux-nptl/arm-hisiv100-linux/bin/../target/usr/lib/libc.a(register-atfork.os)
 .data          0x00072f58        0x0 /opt/hisi-linux-nptl/arm-hisiv100-linux/bin/../target/usr/lib/libc.a(getpid.os)
 .data          0x00072f58        0x0 /opt/hisi-linux-nptl/arm-hisiv100-linux/bin/../target/usr/lib/libc.a(raise.os)
 .data          0x00072f58        0x0 /opt/hisi-linux-nptl/arm-hisiv100-linux/bin/../target/usr/lib/libc.a(jmp-unwind.os)
 .data          0x00072f58        0x0 /opt/hisi-linux-nptl/arm-hisiv100-linux/bin/../target/usr/lib/libc.a(close.os)
 .data          0x00072f58        0x0 /opt/hisi-linux-nptl/arm-hisiv100-linux/bin/../target/usr/lib/libc.a(open.os)
 .data          0x00072f58        0x0 /opt/hisi-linux-nptl/arm-hisiv100-linux/bin/../target/usr/lib/libc.a(write.os)
 .data          0x00072f58        0x0 /opt/hisi-linux-nptl/arm-hisiv100-linux/bin/../target/usr/lib/libc.a(read.os)
 .data          0x00072f58        0x0 /opt/hisi-linux-nptl/arm-hisiv100-linux/bin/../target/usr/lib/libc.a(libc-cancellation.os)
 .data          0x00072f58        0x0 /opt/hisi-linux-nptl/arm-hisiv100-linux/bin/../target/usr/lib/libc.a(libc-tls.os)
 .data          0x00072f58        0x0 /opt/hisi-linux-nptl/arm-hisiv100-linux/bin/../target/usr/lib/libc.a(dl-tls.os)
 .data          0x00072f58        0x0 /opt/hisi-linux-nptl/arm-hisiv100-linux/bin/../target/usr/lib/libc.a(dl-support.os)
 .data.rel      0x00072f58        0x4 /opt/hisi-linux-nptl/arm-hisiv100-linux/bin/../target/usr/lib/libc.a(dl-support.os)
                0x00072f58                _dl_init_static_tls
 .data          0x00072f5c        0x0 /opt/hisi-linux-nptl/arm-hisiv100-linux/bin/../target/usr/lib/libc.a(__uClibc_main.os)
 .data.rel.local
                0x00072f5c        0x4 /opt/hisi-linux-nptl/arm-hisiv100-linux/bin/../target/usr/lib/libc.a(__uClibc_main.os)
                0x00072f5c                __uclibc_progname
 .data          0x00072f60        0x0 /opt/hisi-linux-nptl/arm-hisiv100-linux/bin/../target/usr/lib/libc.a(__syscall_error.os)
 .data          0x00072f60        0x0 /opt/hisi-linux-nptl/arm-hisiv100-linux/bin/../target/usr/lib/libc.a(__longjmp.os)
 .data          0x00072f60        0x0 /opt/hisi-linux-nptl/arm-hisiv100-linux/bin/../target/usr/lib/libc.a(setjmp.os)
 .data          0x00072f60        0x0 /opt/hisi-linux-nptl/arm-hisiv100-linux/bin/../target/usr/lib/libc.a(getdtablesize.os)
 .data          0x00072f60        0x0 /opt/hisi-linux-nptl/arm-hisiv100-linux/bin/../target/usr/lib/libc.a(getegid.os)
 .data          0x00072f60        0x0 /opt/hisi-linux-nptl/arm-hisiv100-linux/bin/../target/usr/lib/libc.a(geteuid.os)
 .data          0x00072f60        0x0 /opt/hisi-linux-nptl/arm-hisiv100-linux/bin/../target/usr/lib/libc.a(getgid.os)
 .data          0x00072f60        0x0 /opt/hisi-linux-nptl/arm-hisiv100-linux/bin/../target/usr/lib/libc.a(getuid.os)
 .data          0x00072f60        0x0 /opt/hisi-linux-nptl/arm-hisiv100-linux/bin/../target/usr/lib/libc.a(kill.os)
 .data          0x00072f60        0x0 /opt/hisi-linux-nptl/arm-hisiv100-linux/bin/../target/usr/lib/libc.a(lseek.os)
 .data          0x00072f60        0x0 /opt/hisi-linux-nptl/arm-hisiv100-linux/bin/../target/usr/lib/libc.a(sbrk.os)
 .data          0x00072f60        0x0 /opt/hisi-linux-nptl/arm-hisiv100-linux/bin/../target/usr/lib/libc.a(__syscall_fcntl.os)
 .data          0x00072f60        0x0 /opt/hisi-linux-nptl/arm-hisiv100-linux/bin/../target/usr/lib/libc.a(time.os)
 .data          0x00072f60        0x0 /opt/hisi-linux-nptl/arm-hisiv100-linux/bin/../target/usr/lib/libc.a(llseek.os)
 .data          0x00072f60        0x0 /opt/hisi-linux-nptl/arm-hisiv100-linux/bin/../target/usr/lib/libc.a(__C_ctype_b.os)
 .data.rel.local
                0x00072f60        0x8 /opt/hisi-linux-nptl/arm-hisiv100-linux/bin/../target/usr/lib/libc.a(__C_ctype_b.os)
                0x00072f60                __GI___C_ctype_b
                0x00072f60                __C_ctype_b
                0x00072f64                __GI___ctype_b
                0x00072f64                __ctype_b
 .data          0x00072f68        0x0 /opt/hisi-linux-nptl/arm-hisiv100-linux/bin/../target/usr/lib/libc.a(closedir.os)
 .data          0x00072f68        0x0 /opt/hisi-linux-nptl/arm-hisiv100-linux/bin/../target/usr/lib/libc.a(opendir.os)
 .data          0x00072f68        0x0 /opt/hisi-linux-nptl/arm-hisiv100-linux/bin/../target/usr/lib/libc.a(readdir64.os)
 .data          0x00072f68        0x0 /opt/hisi-linux-nptl/arm-hisiv100-linux/bin/../target/usr/lib/libc.a(parse_config.os)
 .data          0x00072f68        0x0 /opt/hisi-linux-nptl/arm-hisiv100-linux/bin/../target/usr/lib/libc.a(_locale_init.os)
 .data.rel      0x00072f68        0x4 /opt/hisi-linux-nptl/arm-hisiv100-linux/bin/../target/usr/lib/libc.a(_locale_init.os)
                0x00072f68                __global_locale
 .data          0x00072f6c        0x0 /opt/hisi-linux-nptl/arm-hisiv100-linux/bin/../target/usr/lib/libc.a(__locale_mbrtowc_l.os)
 .data          0x00072f6c        0x0 /opt/hisi-linux-nptl/arm-hisiv100-linux/bin/../target/usr/lib/libc.a(asctime.os)
 .data          0x00072f6c        0x0 /opt/hisi-linux-nptl/arm-hisiv100-linux/bin/../target/usr/lib/libc.a(asctime_r.os)
 .data          0x00072f6c        0x0 /opt/hisi-linux-nptl/arm-hisiv100-linux/bin/../target/usr/lib/libc.a(_time_t2tm.os)
 .data          0x00072f6c        0x0 /opt/hisi-linux-nptl/arm-hisiv100-linux/bin/../target/usr/lib/libc.a(wcrtomb.os)
 .data          0x00072f6c        0x0 /opt/hisi-linux-nptl/arm-hisiv100-linux/bin/../target/usr/lib/libc.a(mbsrtowcs.os)
 .data          0x00072f6c        0x0 /opt/hisi-linux-nptl/arm-hisiv100-linux/bin/../target/usr/lib/libc.a(wcsrtombs.os)
 .data          0x00072f6c        0x0 /opt/hisi-linux-nptl/arm-hisiv100-linux/bin/../target/usr/lib/libc.a(_wchar_utf8sntowcs.os)
 .data          0x00072f6c        0x0 /opt/hisi-linux-nptl/arm-hisiv100-linux/bin/../target/usr/lib/libc.a(mbsnrtowcs.os)
 .data          0x00072f6c        0x0 /opt/hisi-linux-nptl/arm-hisiv100-linux/bin/../target/usr/lib/libc.a(wcsnrtombs.os)
 .data          0x00072f6c        0x0 /opt/hisi-linux-nptl/arm-hisiv100-linux/bin/../target/usr/lib/libc.a(_WRITE.os)
 .data          0x00072f6c        0x0 /opt/hisi-linux-nptl/arm-hisiv100-linux/bin/../target/usr/lib/libc.a(_fwrite.os)
 .data          0x00072f6c        0x0 /opt/hisi-linux-nptl/arm-hisiv100-linux/bin/../target/usr/lib/libc.a(_trans2w.os)
 .data          0x00072f6c        0x0 /opt/hisi-linux-nptl/arm-hisiv100-linux/bin/../target/usr/lib/libc.a(_load_inttype.os)
 .data          0x00072f6c        0x0 /opt/hisi-linux-nptl/arm-hisiv100-linux/bin/../target/usr/lib/libc.a(_store_inttype.os)
 .data          0x00072f6c        0x0 /opt/hisi-linux-nptl/arm-hisiv100-linux/bin/../target/usr/lib/libc.a(_uintmaxtostr.os)
 .data          0x00072f6c        0x0 /opt/hisi-linux-nptl/arm-hisiv100-linux/bin/../target/usr/lib/libc.a(_fpmaxtostr.os)
 .data          0x00072f6c        0x0 /opt/hisi-linux-nptl/arm-hisiv100-linux/bin/../target/usr/lib/libc.a(fgetc.os)
 .data          0x00072f6c        0x0 /opt/hisi-linux-nptl/arm-hisiv100-linux/bin/../target/usr/lib/libc.a(fgets.os)
 .data          0x00072f6c        0x0 /opt/hisi-linux-nptl/arm-hisiv100-linux/bin/../target/usr/lib/libc.a(fgetc_unlocked.os)
 .data          0x00072f6c        0x0 /opt/hisi-linux-nptl/arm-hisiv100-linux/bin/../target/usr/lib/libc.a(fgets_unlocked.os)
 .data          0x00072f6c        0x0 /opt/hisi-linux-nptl/arm-hisiv100-linux/bin/../target/usr/lib/libc.a(memcmp.os)
 .data          0x00072f6c        0x0 /opt/hisi-linux-nptl/arm-hisiv100-linux/bin/../target/usr/lib/libc.a(_memcpy.os)
 .data          0x00072f6c        0x0 /opt/hisi-linux-nptl/arm-hisiv100-linux/bin/../target/usr/lib/libc.a(memchr.os)
 .data          0x00072f6c        0x0 /opt/hisi-linux-nptl/arm-hisiv100-linux/bin/../target/usr/lib/libc.a(memrchr.os)
 .data          0x00072f6c        0x0 /opt/hisi-linux-nptl/arm-hisiv100-linux/bin/../target/usr/lib/libc.a(strchrnul.os)
 .data          0x00072f6c        0x0 /opt/hisi-linux-nptl/arm-hisiv100-linux/bin/../target/usr/lib/libc.a(strcspn.os)
 .data          0x00072f6c        0x0 /opt/hisi-linux-nptl/arm-hisiv100-linux/bin/../target/usr/lib/libc.a(strspn.os)
 .data          0x00072f6c        0x0 /opt/hisi-linux-nptl/arm-hisiv100-linux/bin/../target/usr/lib/libc.a(_string_syserrmsgs.os)
 .data          0x00072f6c        0x2 /opt/hisi-linux-nptl/arm-hisiv100-linux/bin/../target/usr/lib/libc.a(opennameservers.os)
                0x00072f6c                __resolv_timeout
                0x00072f6d                __resolv_attempts
 .data          0x00072f6e        0x0 /opt/hisi-linux-nptl/arm-hisiv100-linux/bin/../target/usr/lib/libc.a(closenameservers.os)
 .data          0x00072f6e        0x0 /opt/hisi-linux-nptl/arm-hisiv100-linux/bin/../target/usr/lib/libc.a(sigjmp.os)
 .data          0x00072f6e        0x0 /opt/hisi-linux-nptl/arm-hisiv100-linux/bin/../target/usr/lib/libc.a(realloc.os)
 .data          0x00072f6e        0x0 /opt/hisi-linux-nptl/arm-hisiv100-linux/bin/../target/usr/lib/libc.a(atol.os)
 .data          0x00072f6e        0x0 /opt/hisi-linux-nptl/arm-hisiv100-linux/bin/../target/usr/lib/libc.a(strtol.os)
 .data          0x00072f6e        0x0 /opt/hisi-linux-nptl/arm-hisiv100-linux/bin/../target/usr/lib/libc.a(_stdlib_strto_l.os)
 .data          0x00072f6e        0x0 /opt/hisi-linux-nptl/arm-hisiv100-linux/bin/../target/usr/lib/libc.a(fork.os)
 .data          0x00072f6e        0x0 /opt/hisi-linux-nptl/arm-hisiv100-linux/bin/../target/usr/lib/libc.a(locale_data.os)
 *fill*         0x00072f6e        0x2 00
 .data.rel.local
                0x00072f70        0x4 /opt/hisi-linux-nptl/arm-hisiv100-linux/bin/../target/usr/lib/libc.a(locale_data.os)
                0x00072f70                __locale_mmap
 .data          0x00072f74        0x0 /opt/hisi-linux-nptl/arm-hisiv100-linux/bin/../target/usr/lib/libc.a(brk.os)
 .data          0x00072f74        0x0 /opt/hisi-linux-nptl/arm-hisiv100-linux/bin/../target/usr/lib/libc.a(fstat.os)
 .data          0x00072f74        0x0 /opt/hisi-linux-nptl/arm-hisiv100-linux/bin/../target/usr/lib/libc.a(gethostname.os)
 .data          0x00072f74        0x0 /opt/hisi-linux-nptl/arm-hisiv100-linux/bin/../target/usr/lib/libc.a(mremap.os)
 .data          0x00072f74        0x0 /opt/hisi-linux-nptl/arm-hisiv100-linux/bin/../target/usr/lib/libc.a(uname.os)
 .data          0x00072f74        0x0 /opt/hisi-linux-nptl/arm-hisiv100-linux/bin/../target/usr/lib/libc.a(getdents64.os)
 .data          0x00072f74        0x0 /opt/hisi-linux-nptl/arm-hisiv100-linux/bin/../target/usr/lib/libc.a(__C_ctype_tolower.os)
 .data.rel.local
                0x00072f74        0x8 /opt/hisi-linux-nptl/arm-hisiv100-linux/bin/../target/usr/lib/libc.a(__C_ctype_tolower.os)
                0x00072f74                __C_ctype_tolower
                0x00072f74                __GI___C_ctype_tolower
                0x00072f78                __GI___ctype_tolower
                0x00072f78                __ctype_tolower
 .data          0x00072f7c        0x0 /opt/hisi-linux-nptl/arm-hisiv100-linux/bin/../target/usr/lib/libc.a(__C_ctype_toupper.os)
 .data.rel.local
                0x00072f7c        0x8 /opt/hisi-linux-nptl/arm-hisiv100-linux/bin/../target/usr/lib/libc.a(__C_ctype_toupper.os)
                0x00072f7c                __GI___C_ctype_toupper
                0x00072f7c                __C_ctype_toupper
                0x00072f80                __GI___ctype_toupper
                0x00072f80                __ctype_toupper
 .data          0x00072f84        0x0 /opt/hisi-linux-nptl/arm-hisiv100-linux/bin/../target/usr/lib/libc.a(_wchar_wcsntoutf8s.os)
 .data          0x00072f84        0x0 /opt/hisi-linux-nptl/arm-hisiv100-linux/bin/../target/usr/lib/libc.a(fseeko.os)
 .data          0x00072f84        0x0 /opt/hisi-linux-nptl/arm-hisiv100-linux/bin/../target/usr/lib/libc.a(fseeko64.os)
 .data          0x00072f84        0x0 /opt/hisi-linux-nptl/arm-hisiv100-linux/bin/../target/usr/lib/libc.a(_READ.os)
 .data          0x00072f84        0x0 /opt/hisi-linux-nptl/arm-hisiv100-linux/bin/../target/usr/lib/libc.a(_adjust_pos.os)
 .data          0x00072f84        0x0 /opt/hisi-linux-nptl/arm-hisiv100-linux/bin/../target/usr/lib/libc.a(_rfill.os)
 .data          0x00072f84        0x0 /opt/hisi-linux-nptl/arm-hisiv100-linux/bin/../target/usr/lib/libc.a(_trans2r.os)
 .data          0x00072f84        0x0 /opt/hisi-linux-nptl/arm-hisiv100-linux/bin/../target/usr/lib/libc.a(strdup.os)
 .data          0x00072f84        0x0 /opt/hisi-linux-nptl/arm-hisiv100-linux/bin/../target/usr/lib/libc.a(ntop.os)
 .data          0x00072f84        0x0 /opt/hisi-linux-nptl/arm-hisiv100-linux/bin/../lib/gcc/arm-hisiv100-linux-uclibcgnueabi/4.4.1/libgcc.a(_divsi3.o)
 .data          0x00072f84        0x0 /opt/hisi-linux-nptl/arm-hisiv100-linux/bin/../lib/gcc/arm-hisiv100-linux-uclibcgnueabi/4.4.1/libgcc.a(_arm_cmpdf2.o)
 .data          0x00072f84        0x0 /opt/hisi-linux-nptl/arm-hisiv100-linux/bin/../lib/gcc/arm-hisiv100-linux-uclibcgnueabi/4.4.1/crtend.o
 .data          0x00072f84        0x0 /opt/hisi-linux-nptl/arm-hisiv100-linux/bin/../target/usr/lib/crtn.o

.data1
 *(.data1)
                0x00072f84                _edata = .
                0x00072f84                PROVIDE (edata, .)
                0x00072f84                __bss_start = .
                0x00072f84                __bss_start__ = .

.bss            0x00072f88     0xffd8
 *(.dynbss)
 *(.bss .bss.* .gnu.linkonce.b.*)
 .bss           0x00072f88        0x0 /opt/hisi-linux-nptl/arm-hisiv100-linux/bin/../target/usr/lib/crt1.o
 .bss           0x00072f88        0x0 /opt/hisi-linux-nptl/arm-hisiv100-linux/bin/../target/usr/lib/crti.o
 .bss           0x00072f88        0x1 /opt/hisi-linux-nptl/arm-hisiv100-linux/bin/../lib/gcc/arm-hisiv100-linux-uclibcgnueabi/4.4.1/crtbeginT.o
 *fill*         0x00072f89        0x7 00
 .bss           0x00072f90     0x92c0 main.o
 .bss           0x0007c250        0x8 init.o
                0x0007c250                g_videostd
                0x0007c254                g_voOutputType
 .bss           0x0007c258        0x0 fvideo.o
 .bss           0x0007c258        0x0 videoenc.o
 .bss           0x0007c258        0x0 dvr/i2c/i2c.o
 .bss           0x0007c258        0x4 dvr/sysreg/sys_reg_public.o
 .bss           0x0007c25c       0x20 /opt/hisi-linux-nptl/arm-hisiv100-linux/bin/../target/usr/lib/libpthread.a(pthread_create.os)
                0x0007c264                __GI___stack_user
                0x0007c264                __stack_user
 .bss           0x0007c27c        0x0 /opt/hisi-linux-nptl/arm-hisiv100-linux/bin/../target/usr/lib/libpthread.a(pthread_getspecific.os)
 .bss           0x0007c27c        0x0 /opt/hisi-linux-nptl/arm-hisiv100-linux/bin/../target/usr/lib/libpthread.a(pthread_key_create.os)
 .bss           0x0007c27c        0x0 /opt/hisi-linux-nptl/arm-hisiv100-linux/bin/../target/usr/lib/libpthread.a(pthread_key_delete.os)
 .bss           0x0007c27c        0x0 /opt/hisi-linux-nptl/arm-hisiv100-linux/bin/../target/usr/lib/libpthread.a(pthread_mutex_destroy.os)
 .bss           0x0007c27c        0x0 /opt/hisi-linux-nptl/arm-hisiv100-linux/bin/../target/usr/lib/libpthread.a(pthread_mutex_init.os)
 .bss           0x0007c27c        0x0 /opt/hisi-linux-nptl/arm-hisiv100-linux/bin/../target/usr/lib/libpthread.a(pthread_mutex_lock.os)
 .bss           0x0007c27c        0x0 /opt/hisi-linux-nptl/arm-hisiv100-linux/bin/../target/usr/lib/libpthread.a(pthread_mutex_trylock.os)
 .bss           0x0007c27c        0x0 /opt/hisi-linux-nptl/arm-hisiv100-linux/bin/../target/usr/lib/libpthread.a(pthread_mutex_unlock.os)
 .bss           0x0007c27c        0x0 /opt/hisi-linux-nptl/arm-hisiv100-linux/bin/../target/usr/lib/libpthread.a(pthread_once.os)
 .bss           0x0007c27c        0x0 /opt/hisi-linux-nptl/arm-hisiv100-linux/bin/../target/usr/lib/libpthread.a(pthread_setspecific.os)
 .bss           0x0007c27c        0x0 /opt/hisi-linux-nptl/arm-hisiv100-linux/bin/../target/usr/lib/libpthread.a(tpp.os)
 .bss           0x0007c27c     0x2000 /opt/hisi-linux-nptl/arm-hisiv100-linux/bin/../target/usr/lib/libpthread.a(vars.os)
                0x0007c27c                __GI___pthread_keys
                0x0007c27c                __pthread_keys
 .bss           0x0007e27c        0x0 /opt/hisi-linux-nptl/arm-hisiv100-linux/bin/../target/usr/lib/libpthread.a(aeabi_read_tp.os)
 .bss           0x0007e27c        0x0 /opt/hisi-linux-nptl/arm-hisiv100-linux/bin/../target/usr/lib/libpthread.a(cancellation.os)
 .bss           0x0007e27c        0x0 /opt/hisi-linux-nptl/arm-hisiv100-linux/bin/../target/usr/lib/libpthread.a(cleanup_defer_compat.os)
 .bss           0x0007e27c        0x0 /opt/hisi-linux-nptl/arm-hisiv100-linux/bin/../target/usr/lib/libpthread.a(events.os)
 .bss           0x0007e27c        0x8 /opt/hisi-linux-nptl/arm-hisiv100-linux/bin/../target/usr/lib/libpthread.a(init.os)
 .bss           0x0007e284        0x0 /opt/hisi-linux-nptl/arm-hisiv100-linux/bin/../target/usr/lib/libpthread.a(lowlevellock.os)
 .bss           0x0007e284        0x0 /opt/hisi-linux-nptl/arm-hisiv100-linux/bin/../target/usr/lib/libpthread.a(lowlevelrobustlock.os)
 .bss           0x0007e284        0x0 /opt/hisi-linux-nptl/arm-hisiv100-linux/bin/../target/usr/lib/libpthread.a(pthread_cancel.os)
 .bss           0x0007e284        0x0 /opt/hisi-linux-nptl/arm-hisiv100-linux/bin/../target/usr/lib/libpthread.a(unwind.os)
 .bss           0x0007e284        0x0 /opt/hisi-linux-nptl/arm-hisiv100-linux/bin/../target/usr/lib/libpthread.a(pt-longjmp.os)
 .bss           0x0007e284      0xfc4 ./lib/libmpi.a(mpi_venc.o)
 .bss           0x0007f248        0x0 ./lib/libmpi.a(mpi_vi.o)
 .bss           0x0007f248        0x0 ./lib/libmem.a(memcpy_back.o)
 .bss           0x0007f248        0x0 ./lib/libmem.a(memset1.o)
 .bss           0x0007f248        0x0 ./lib/libmem.a(memcpy1.o)
 .bss           0x0007f248        0x0 /opt/hisi-linux-nptl/arm-hisiv100-linux/bin/../lib/gcc/arm-hisiv100-linux-uclibcgnueabi/4.4.1/libgcc.a(_udivsi3.o)
 .bss           0x0007f248        0x0 /opt/hisi-linux-nptl/arm-hisiv100-linux/bin/../lib/gcc/arm-hisiv100-linux-uclibcgnueabi/4.4.1/libgcc.a(_arm_addsubdf3.o)
 .bss           0x0007f248        0x0 /opt/hisi-linux-nptl/arm-hisiv100-linux/bin/../lib/gcc/arm-hisiv100-linux-uclibcgnueabi/4.4.1/libgcc.a(_arm_muldivdf3.o)
 .bss           0x0007f248        0x0 /opt/hisi-linux-nptl/arm-hisiv100-linux/bin/../lib/gcc/arm-hisiv100-linux-uclibcgnueabi/4.4.1/libgcc.a(_arm_fixunsdfsi.o)
 .bss           0x0007f248        0x0 /opt/hisi-linux-nptl/arm-hisiv100-linux/bin/../lib/gcc/arm-hisiv100-linux-uclibcgnueabi/4.4.1/libgcc.a(_dvmd_lnx.o)
 .bss           0x0007f248        0x0 /opt/hisi-linux-nptl/arm-hisiv100-linux/bin/../lib/gcc/arm-hisiv100-linux-uclibcgnueabi/4.4.1/libgcc_eh.a(unwind-arm.o)
 .bss           0x0007f248        0x0 /opt/hisi-linux-nptl/arm-hisiv100-linux/bin/../lib/gcc/arm-hisiv100-linux-uclibcgnueabi/4.4.1/libgcc_eh.a(libunwind.o)
 .bss           0x0007f248        0x0 /opt/hisi-linux-nptl/arm-hisiv100-linux/bin/../lib/gcc/arm-hisiv100-linux-uclibcgnueabi/4.4.1/libgcc_eh.a(pr-support.o)
 .bss           0x0007f248        0x0 /opt/hisi-linux-nptl/arm-hisiv100-linux/bin/../lib/gcc/arm-hisiv100-linux-uclibcgnueabi/4.4.1/libgcc_eh.a(unwind-c.o)
 .bss           0x0007f248        0x0 /opt/hisi-linux-nptl/arm-hisiv100-linux/bin/../target/usr/lib/libc.a(sigaction.os)
 .bss           0x0007f248        0x0 /opt/hisi-linux-nptl/arm-hisiv100-linux/bin/../target/usr/lib/libc.a(mmap.os)
 .bss           0x0007f248        0x0 /opt/hisi-linux-nptl/arm-hisiv100-linux/bin/../target/usr/lib/libc.a(bsd-_setjmp.os)
 .bss           0x0007f248        0x0 /opt/hisi-linux-nptl/arm-hisiv100-linux/bin/../target/usr/lib/libc.a(sigrestorer.os)
 .bss           0x0007f248        0x0 /opt/hisi-linux-nptl/arm-hisiv100-linux/bin/../target/usr/lib/libc.a(_exit.os)
 .bss           0x0007f248        0x0 /opt/hisi-linux-nptl/arm-hisiv100-linux/bin/../target/usr/lib/libc.a(getpagesize.os)
 .bss           0x0007f248        0x0 /opt/hisi-linux-nptl/arm-hisiv100-linux/bin/../target/usr/lib/libc.a(getrlimit.os)
 .bss           0x0007f248        0x0 /opt/hisi-linux-nptl/arm-hisiv100-linux/bin/../target/usr/lib/libc.a(gettimeofday.os)
 .bss           0x0007f248        0x0 /opt/hisi-linux-nptl/arm-hisiv100-linux/bin/../target/usr/lib/libc.a(ioctl.os)
 .bss           0x0007f248        0x0 /opt/hisi-linux-nptl/arm-hisiv100-linux/bin/../target/usr/lib/libc.a(longjmp.os)
 .bss           0x0007f248        0x0 /opt/hisi-linux-nptl/arm-hisiv100-linux/bin/../target/usr/lib/libc.a(madvise.os)
 .bss           0x0007f248        0x0 /opt/hisi-linux-nptl/arm-hisiv100-linux/bin/../target/usr/lib/libc.a(mprotect.os)
 .bss           0x0007f248        0x0 /opt/hisi-linux-nptl/arm-hisiv100-linux/bin/../target/usr/lib/libc.a(munmap.os)
 .bss           0x0007f248        0x0 /opt/hisi-linux-nptl/arm-hisiv100-linux/bin/../target/usr/lib/libc.a(sched_getparam.os)
 .bss           0x0007f248        0x0 /opt/hisi-linux-nptl/arm-hisiv100-linux/bin/../target/usr/lib/libc.a(sched_get_priority_max.os)
 .bss           0x0007f248        0x0 /opt/hisi-linux-nptl/arm-hisiv100-linux/bin/../target/usr/lib/libc.a(sched_get_priority_min.os)
 .bss           0x0007f248        0x0 /opt/hisi-linux-nptl/arm-hisiv100-linux/bin/../target/usr/lib/libc.a(sched_getscheduler.os)
 .bss           0x0007f248        0x0 /opt/hisi-linux-nptl/arm-hisiv100-linux/bin/../target/usr/lib/libc.a(sched_setscheduler.os)
 .bss           0x0007f248        0x0 /opt/hisi-linux-nptl/arm-hisiv100-linux/bin/../target/usr/lib/libc.a(sigprocmask.os)
 .bss           0x0007f248        0x0 /opt/hisi-linux-nptl/arm-hisiv100-linux/bin/../target/usr/lib/libc.a(ssp.os)
 .bss           0x0007f248        0x0 /opt/hisi-linux-nptl/arm-hisiv100-linux/bin/../target/usr/lib/libc.a(stat.os)
 .bss           0x0007f248        0x0 /opt/hisi-linux-nptl/arm-hisiv100-linux/bin/../target/usr/lib/libc.a(__syscall_rt_sigaction.os)
 .bss           0x0007f248        0x0 /opt/hisi-linux-nptl/arm-hisiv100-linux/bin/../target/usr/lib/libc.a(xstatconv.os)
 .bss           0x0007f248        0x4 /opt/hisi-linux-nptl/arm-hisiv100-linux/bin/../target/usr/lib/libc.a(__assert.os)
 .bss           0x0007f24c        0x0 /opt/hisi-linux-nptl/arm-hisiv100-linux/bin/../target/usr/lib/libc.a(errno.os)
 .bss           0x0007f24c        0x0 /opt/hisi-linux-nptl/arm-hisiv100-linux/bin/../target/usr/lib/libc.a(__errno_location.os)
 .bss           0x0007f24c       0x20 /opt/hisi-linux-nptl/arm-hisiv100-linux/bin/../target/usr/lib/libc.a(syslog.os)
 .bss           0x0007f26c        0x0 /opt/hisi-linux-nptl/arm-hisiv100-linux/bin/../target/usr/lib/libc.a(ctime.os)
 .bss           0x0007f26c        0x0 /opt/hisi-linux-nptl/arm-hisiv100-linux/bin/../target/usr/lib/libc.a(localtime_r.os)
 .bss           0x0007f26c       0x4c /opt/hisi-linux-nptl/arm-hisiv100-linux/bin/../target/usr/lib/libc.a(tzset.os)
                0x0007f2b0                daylight
                0x0007f2b4                timezone
 .bss           0x0007f2b8        0x0 /opt/hisi-linux-nptl/arm-hisiv100-linux/bin/../target/usr/lib/libc.a(_time_localtime_tzi.os)
 .bss           0x0007f2b8        0x0 /opt/hisi-linux-nptl/arm-hisiv100-linux/bin/../target/usr/lib/libc.a(fclose.os)
 .bss           0x0007f2b8        0x0 /opt/hisi-linux-nptl/arm-hisiv100-linux/bin/../target/usr/lib/libc.a(fopen.os)
 .bss           0x0007f2b8        0x0 /opt/hisi-linux-nptl/arm-hisiv100-linux/bin/../target/usr/lib/libc.a(puts.os)
 .bss           0x0007f2b8        0x0 /opt/hisi-linux-nptl/arm-hisiv100-linux/bin/../target/usr/lib/libc.a(printf.os)
 .bss           0x0007f2b8        0x0 /opt/hisi-linux-nptl/arm-hisiv100-linux/bin/../target/usr/lib/libc.a(fprintf.os)
 .bss           0x0007f2b8        0x0 /opt/hisi-linux-nptl/arm-hisiv100-linux/bin/../target/usr/lib/libc.a(snprintf.os)
 .bss           0x0007f2b8        0x0 /opt/hisi-linux-nptl/arm-hisiv100-linux/bin/../target/usr/lib/libc.a(sprintf.os)
 .bss           0x0007f2b8        0x0 /opt/hisi-linux-nptl/arm-hisiv100-linux/bin/../target/usr/lib/libc.a(vsnprintf.os)
 .bss           0x0007f2b8        0x0 /opt/hisi-linux-nptl/arm-hisiv100-linux/bin/../target/usr/lib/libc.a(_fopen.os)
 .bss           0x0007f2b8     0x2020 /opt/hisi-linux-nptl/arm-hisiv100-linux/bin/../target/usr/lib/libc.a(_stdio.os)
                0x0007f2b8                _stdio_openlist_add_lock
                0x0007f2c4                _stdio_openlist_del_lock
                0x0007f2d0                _stdio_openlist_use_count
                0x0007f2d4                _stdio_openlist_del_count
 .bss           0x000812d8        0x0 /opt/hisi-linux-nptl/arm-hisiv100-linux/bin/../target/usr/lib/libc.a(_wcommit.os)
 .bss           0x000812d8        0x0 /opt/hisi-linux-nptl/arm-hisiv100-linux/bin/../target/usr/lib/libc.a(_cs_funcs.os)
 .bss           0x000812d8        0x0 /opt/hisi-linux-nptl/arm-hisiv100-linux/bin/../target/usr/lib/libc.a(vfprintf.os)
 .bss           0x000812d8        0x0 /opt/hisi-linux-nptl/arm-hisiv100-linux/bin/../target/usr/lib/libc.a(_vfprintf_internal.os)
 .bss           0x000812d8        0x0 /opt/hisi-linux-nptl/arm-hisiv100-linux/bin/../target/usr/lib/libc.a(_ppfs_init.os)
 .bss           0x000812d8        0x0 /opt/hisi-linux-nptl/arm-hisiv100-linux/bin/../target/usr/lib/libc.a(_ppfs_prepargs.os)
 .bss           0x000812d8        0x0 /opt/hisi-linux-nptl/arm-hisiv100-linux/bin/../target/usr/lib/libc.a(_ppfs_setargs.os)
 .bss           0x000812d8        0xc /opt/hisi-linux-nptl/arm-hisiv100-linux/bin/../target/usr/lib/libc.a(_ppfs_parsespec.os)
 .bss           0x000812e4        0x0 /opt/hisi-linux-nptl/arm-hisiv100-linux/bin/../target/usr/lib/libc.a(fwrite.os)
 .bss           0x000812e4        0x0 /opt/hisi-linux-nptl/arm-hisiv100-linux/bin/../target/usr/lib/libc.a(fflush_unlocked.os)
 .bss           0x000812e4        0x0 /opt/hisi-linux-nptl/arm-hisiv100-linux/bin/../target/usr/lib/libc.a(fputc_unlocked.os)
 .bss           0x000812e4        0x0 /opt/hisi-linux-nptl/arm-hisiv100-linux/bin/../target/usr/lib/libc.a(fputs_unlocked.os)
 .bss           0x000812e4        0x0 /opt/hisi-linux-nptl/arm-hisiv100-linux/bin/../target/usr/lib/libc.a(fwrite_unlocked.os)
 .bss           0x000812e4        0x0 /opt/hisi-linux-nptl/arm-hisiv100-linux/bin/../target/usr/lib/libc.a(memcpy.os)
 .bss           0x000812e4        0x0 /opt/hisi-linux-nptl/arm-hisiv100-linux/bin/../target/usr/lib/libc.a(memmove.os)
 .bss           0x000812e4        0x0 /opt/hisi-linux-nptl/arm-hisiv100-linux/bin/../target/usr/lib/libc.a(memset.os)
 .bss           0x000812e4        0x0 /opt/hisi-linux-nptl/arm-hisiv100-linux/bin/../target/usr/lib/libc.a(strcmp.os)
 .bss           0x000812e4        0x0 /opt/hisi-linux-nptl/arm-hisiv100-linux/bin/../target/usr/lib/libc.a(strlen.os)
 .bss           0x000812e4        0x0 /opt/hisi-linux-nptl/arm-hisiv100-linux/bin/../target/usr/lib/libc.a(mempcpy.os)
 .bss           0x000812e4        0x0 /opt/hisi-linux-nptl/arm-hisiv100-linux/bin/../target/usr/lib/libc.a(strchr.os)
 .bss           0x000812e4        0x0 /opt/hisi-linux-nptl/arm-hisiv100-linux/bin/../target/usr/lib/libc.a(strcpy.os)
 .bss           0x000812e4        0x0 /opt/hisi-linux-nptl/arm-hisiv100-linux/bin/../target/usr/lib/libc.a(strncmp.os)
 .bss           0x000812e4        0x0 /opt/hisi-linux-nptl/arm-hisiv100-linux/bin/../target/usr/lib/libc.a(strncpy.os)
 .bss           0x000812e4        0x0 /opt/hisi-linux-nptl/arm-hisiv100-linux/bin/../target/usr/lib/libc.a(strnlen.os)
 .bss           0x000812e4        0x0 /opt/hisi-linux-nptl/arm-hisiv100-linux/bin/../target/usr/lib/libc.a(__glibc_strerror_r.os)
 .bss           0x000812e4       0x34 /opt/hisi-linux-nptl/arm-hisiv100-linux/bin/../target/usr/lib/libc.a(strerror.os)
 .bss           0x00081318        0x0 /opt/hisi-linux-nptl/arm-hisiv100-linux/bin/../target/usr/lib/libc.a(__xpg_strerror_r.os)
 .bss           0x00081318        0x0 /opt/hisi-linux-nptl/arm-hisiv100-linux/bin/../target/usr/lib/libc.a(isatty.os)
 .bss           0x00081318        0x0 /opt/hisi-linux-nptl/arm-hisiv100-linux/bin/../target/usr/lib/libc.a(tcgetattr.os)
 .bss           0x00081318      0x1d4 /opt/hisi-linux-nptl/arm-hisiv100-linux/bin/../target/usr/lib/libc.a(res_init.os)
                0x00081318                _res
 .bss           0x000814ec        0x0 /opt/hisi-linux-nptl/arm-hisiv100-linux/bin/../target/usr/lib/libc.a(connect.os)
 .bss           0x000814ec        0x0 /opt/hisi-linux-nptl/arm-hisiv100-linux/bin/../target/usr/lib/libc.a(send.os)
 .bss           0x000814ec        0x0 /opt/hisi-linux-nptl/arm-hisiv100-linux/bin/../target/usr/lib/libc.a(socket.os)
 .bss           0x000814ec        0x0 /opt/hisi-linux-nptl/arm-hisiv100-linux/bin/../target/usr/lib/libc.a(malloc.os)
 .bss           0x000814ec        0x0 /opt/hisi-linux-nptl/arm-hisiv100-linux/bin/../target/usr/lib/libc.a(calloc.os)
 .bss           0x000814ec        0x0 /opt/hisi-linux-nptl/arm-hisiv100-linux/bin/../target/usr/lib/libc.a(free.os)
 .bss           0x000814ec        0x4 /opt/hisi-linux-nptl/arm-hisiv100-linux/bin/../target/usr/lib/libc.a(abort.os)
 .bss           0x000814f0        0x0 /opt/hisi-linux-nptl/arm-hisiv100-linux/bin/../target/usr/lib/libc.a(getenv.os)
 .bss           0x000814f0        0x4 /opt/hisi-linux-nptl/arm-hisiv100-linux/bin/../target/usr/lib/libc.a(exit.os)
                0x000814f0                __exit_cleanup
 .bss           0x000814f4        0x0 /opt/hisi-linux-nptl/arm-hisiv100-linux/bin/../target/usr/lib/libc.a(sysconf.os)
 .bss           0x000814f4        0x0 /opt/hisi-linux-nptl/arm-hisiv100-linux/bin/../target/usr/lib/libc.a(clone.os)
 .bss           0x000814f4        0x0 /opt/hisi-linux-nptl/arm-hisiv100-linux/bin/../target/usr/lib/libc.a(libc_pthread_init.os)
 .bss           0x000814f4        0x0 /opt/hisi-linux-nptl/arm-hisiv100-linux/bin/../target/usr/lib/libc.a(libc_multiple_threads.os)
 .bss           0x000814f4      0x548 /opt/hisi-linux-nptl/arm-hisiv100-linux/bin/../target/usr/lib/libc.a(register-atfork.os)
                0x000814f4                __fork_lock
 .bss           0x00081a3c        0x0 /opt/hisi-linux-nptl/arm-hisiv100-linux/bin/../target/usr/lib/libc.a(getpid.os)
 .bss           0x00081a3c        0x0 /opt/hisi-linux-nptl/arm-hisiv100-linux/bin/../target/usr/lib/libc.a(raise.os)
 .bss           0x00081a3c        0x0 /opt/hisi-linux-nptl/arm-hisiv100-linux/bin/../target/usr/lib/libc.a(jmp-unwind.os)
 .bss           0x00081a3c        0x0 /opt/hisi-linux-nptl/arm-hisiv100-linux/bin/../target/usr/lib/libc.a(close.os)
 .bss           0x00081a3c        0x0 /opt/hisi-linux-nptl/arm-hisiv100-linux/bin/../target/usr/lib/libc.a(open.os)
 .bss           0x00081a3c        0x0 /opt/hisi-linux-nptl/arm-hisiv100-linux/bin/../target/usr/lib/libc.a(write.os)
 .bss           0x00081a3c        0x0 /opt/hisi-linux-nptl/arm-hisiv100-linux/bin/../target/usr/lib/libc.a(read.os)
 .bss           0x00081a3c        0x0 /opt/hisi-linux-nptl/arm-hisiv100-linux/bin/../target/usr/lib/libc.a(libc-cancellation.os)
 .bss           0x00081a3c      0x53c /opt/hisi-linux-nptl/arm-hisiv100-linux/bin/../target/usr/lib/libc.a(libc-tls.os)
 .bss           0x00081f78        0x0 /opt/hisi-linux-nptl/arm-hisiv100-linux/bin/../target/usr/lib/libc.a(dl-tls.os)
 .bss           0x00081f78        0x0 /opt/hisi-linux-nptl/arm-hisiv100-linux/bin/../target/usr/lib/libc.a(dl-support.os)
 .bss           0x00081f78       0x18 /opt/hisi-linux-nptl/arm-hisiv100-linux/bin/../target/usr/lib/libc.a(__uClibc_main.os)
                0x00081f78                __app_fini
                0x00081f7c                __rtld_fini
                0x00081f84                __libc_stack_end
                0x00081f88                __environ
                0x00081f88                environ
                0x00081f8c                __pagesize
 .bss           0x00081f90        0x0 /opt/hisi-linux-nptl/arm-hisiv100-linux/bin/../target/usr/lib/libc.a(__syscall_error.os)
 .bss           0x00081f90        0x0 /opt/hisi-linux-nptl/arm-hisiv100-linux/bin/../target/usr/lib/libc.a(__longjmp.os)
 .bss           0x00081f90        0x0 /opt/hisi-linux-nptl/arm-hisiv100-linux/bin/../target/usr/lib/libc.a(setjmp.os)
 .bss           0x00081f90        0x0 /opt/hisi-linux-nptl/arm-hisiv100-linux/bin/../target/usr/lib/libc.a(getdtablesize.os)
 .bss           0x00081f90        0x0 /opt/hisi-linux-nptl/arm-hisiv100-linux/bin/../target/usr/lib/libc.a(getegid.os)
 .bss           0x00081f90        0x0 /opt/hisi-linux-nptl/arm-hisiv100-linux/bin/../target/usr/lib/libc.a(geteuid.os)
 .bss           0x00081f90        0x0 /opt/hisi-linux-nptl/arm-hisiv100-linux/bin/../target/usr/lib/libc.a(getgid.os)
 .bss           0x00081f90        0x0 /opt/hisi-linux-nptl/arm-hisiv100-linux/bin/../target/usr/lib/libc.a(getuid.os)
 .bss           0x00081f90        0x0 /opt/hisi-linux-nptl/arm-hisiv100-linux/bin/../target/usr/lib/libc.a(kill.os)
 .bss           0x00081f90        0x0 /opt/hisi-linux-nptl/arm-hisiv100-linux/bin/../target/usr/lib/libc.a(lseek.os)
 .bss           0x00081f90        0x0 /opt/hisi-linux-nptl/arm-hisiv100-linux/bin/../target/usr/lib/libc.a(sbrk.os)
 .bss           0x00081f90        0x0 /opt/hisi-linux-nptl/arm-hisiv100-linux/bin/../target/usr/lib/libc.a(__syscall_fcntl.os)
 .bss           0x00081f90        0x0 /opt/hisi-linux-nptl/arm-hisiv100-linux/bin/../target/usr/lib/libc.a(time.os)
 .bss           0x00081f90        0x0 /opt/hisi-linux-nptl/arm-hisiv100-linux/bin/../target/usr/lib/libc.a(llseek.os)
 .bss           0x00081f90        0x0 /opt/hisi-linux-nptl/arm-hisiv100-linux/bin/../target/usr/lib/libc.a(__C_ctype_b.os)
 .bss           0x00081f90        0x0 /opt/hisi-linux-nptl/arm-hisiv100-linux/bin/../target/usr/lib/libc.a(closedir.os)
 .bss           0x00081f90        0x0 /opt/hisi-linux-nptl/arm-hisiv100-linux/bin/../target/usr/lib/libc.a(opendir.os)
 .bss           0x00081f90        0x0 /opt/hisi-linux-nptl/arm-hisiv100-linux/bin/../target/usr/lib/libc.a(readdir64.os)
 .bss           0x00081f90        0x0 /opt/hisi-linux-nptl/arm-hisiv100-linux/bin/../target/usr/lib/libc.a(parse_config.os)
 .bss           0x00081f90        0x0 /opt/hisi-linux-nptl/arm-hisiv100-linux/bin/../target/usr/lib/libc.a(_locale_init.os)
 .bss           0x00081f90        0x0 /opt/hisi-linux-nptl/arm-hisiv100-linux/bin/../target/usr/lib/libc.a(__locale_mbrtowc_l.os)
 .bss           0x00081f90       0x1c /opt/hisi-linux-nptl/arm-hisiv100-linux/bin/../target/usr/lib/libc.a(asctime.os)
 .bss           0x00081fac        0x0 /opt/hisi-linux-nptl/arm-hisiv100-linux/bin/../target/usr/lib/libc.a(asctime_r.os)
 .bss           0x00081fac        0x0 /opt/hisi-linux-nptl/arm-hisiv100-linux/bin/../target/usr/lib/libc.a(_time_t2tm.os)
 .bss           0x00081fac        0x0 /opt/hisi-linux-nptl/arm-hisiv100-linux/bin/../target/usr/lib/libc.a(wcrtomb.os)
 .bss           0x00081fac        0x8 /opt/hisi-linux-nptl/arm-hisiv100-linux/bin/../target/usr/lib/libc.a(mbsrtowcs.os)
 .bss           0x00081fb4        0x0 /opt/hisi-linux-nptl/arm-hisiv100-linux/bin/../target/usr/lib/libc.a(wcsrtombs.os)
 .bss           0x00081fb4        0x0 /opt/hisi-linux-nptl/arm-hisiv100-linux/bin/../target/usr/lib/libc.a(_wchar_utf8sntowcs.os)
 .bss           0x00081fb4        0x8 /opt/hisi-linux-nptl/arm-hisiv100-linux/bin/../target/usr/lib/libc.a(mbsnrtowcs.os)
 .bss           0x00081fbc        0x0 /opt/hisi-linux-nptl/arm-hisiv100-linux/bin/../target/usr/lib/libc.a(wcsnrtombs.os)
 .bss           0x00081fbc        0x0 /opt/hisi-linux-nptl/arm-hisiv100-linux/bin/../target/usr/lib/libc.a(_WRITE.os)
 .bss           0x00081fbc        0x0 /opt/hisi-linux-nptl/arm-hisiv100-linux/bin/../target/usr/lib/libc.a(_fwrite.os)
 .bss           0x00081fbc        0x0 /opt/hisi-linux-nptl/arm-hisiv100-linux/bin/../target/usr/lib/libc.a(_trans2w.os)
 .bss           0x00081fbc        0x0 /opt/hisi-linux-nptl/arm-hisiv100-linux/bin/../target/usr/lib/libc.a(_load_inttype.os)
 .bss           0x00081fbc        0x0 /opt/hisi-linux-nptl/arm-hisiv100-linux/bin/../target/usr/lib/libc.a(_store_inttype.os)
 .bss           0x00081fbc        0x0 /opt/hisi-linux-nptl/arm-hisiv100-linux/bin/../target/usr/lib/libc.a(_uintmaxtostr.os)
 .bss           0x00081fbc        0x0 /opt/hisi-linux-nptl/arm-hisiv100-linux/bin/../target/usr/lib/libc.a(_fpmaxtostr.os)
 .bss           0x00081fbc        0x0 /opt/hisi-linux-nptl/arm-hisiv100-linux/bin/../target/usr/lib/libc.a(fgetc.os)
 .bss           0x00081fbc        0x0 /opt/hisi-linux-nptl/arm-hisiv100-linux/bin/../target/usr/lib/libc.a(fgets.os)
 .bss           0x00081fbc        0x0 /opt/hisi-linux-nptl/arm-hisiv100-linux/bin/../target/usr/lib/libc.a(fgetc_unlocked.os)
 .bss           0x00081fbc        0x0 /opt/hisi-linux-nptl/arm-hisiv100-linux/bin/../target/usr/lib/libc.a(fgets_unlocked.os)
 .bss           0x00081fbc        0x0 /opt/hisi-linux-nptl/arm-hisiv100-linux/bin/../target/usr/lib/libc.a(memcmp.os)
 .bss           0x00081fbc        0x0 /opt/hisi-linux-nptl/arm-hisiv100-linux/bin/../target/usr/lib/libc.a(_memcpy.os)
 .bss           0x00081fbc        0x0 /opt/hisi-linux-nptl/arm-hisiv100-linux/bin/../target/usr/lib/libc.a(memchr.os)
 .bss           0x00081fbc        0x0 /opt/hisi-linux-nptl/arm-hisiv100-linux/bin/../target/usr/lib/libc.a(memrchr.os)
 .bss           0x00081fbc        0x0 /opt/hisi-linux-nptl/arm-hisiv100-linux/bin/../target/usr/lib/libc.a(strchrnul.os)
 .bss           0x00081fbc        0x0 /opt/hisi-linux-nptl/arm-hisiv100-linux/bin/../target/usr/lib/libc.a(strcspn.os)
 .bss           0x00081fbc        0x0 /opt/hisi-linux-nptl/arm-hisiv100-linux/bin/../target/usr/lib/libc.a(strspn.os)
 .bss           0x00081fbc        0x0 /opt/hisi-linux-nptl/arm-hisiv100-linux/bin/../target/usr/lib/libc.a(_string_syserrmsgs.os)
 .bss           0x00081fbc       0x1c /opt/hisi-linux-nptl/arm-hisiv100-linux/bin/../target/usr/lib/libc.a(opennameservers.os)
                0x00081fc0                __resolv_lock
 .bss           0x00081fd8        0x0 /opt/hisi-linux-nptl/arm-hisiv100-linux/bin/../target/usr/lib/libc.a(closenameservers.os)
 .bss           0x00081fd8        0x0 /opt/hisi-linux-nptl/arm-hisiv100-linux/bin/../target/usr/lib/libc.a(sigjmp.os)
 .bss           0x00081fd8        0x0 /opt/hisi-linux-nptl/arm-hisiv100-linux/bin/../target/usr/lib/libc.a(realloc.os)
 .bss           0x00081fd8        0x0 /opt/hisi-linux-nptl/arm-hisiv100-linux/bin/../target/usr/lib/libc.a(atol.os)
 .bss           0x00081fd8        0x0 /opt/hisi-linux-nptl/arm-hisiv100-linux/bin/../target/usr/lib/libc.a(strtol.os)
 .bss           0x00081fd8        0x0 /opt/hisi-linux-nptl/arm-hisiv100-linux/bin/../target/usr/lib/libc.a(_stdlib_strto_l.os)
 .bss           0x00081fd8        0x0 /opt/hisi-linux-nptl/arm-hisiv100-linux/bin/../target/usr/lib/libc.a(fork.os)
 .bss           0x00081fd8        0x0 /opt/hisi-linux-nptl/arm-hisiv100-linux/bin/../target/usr/lib/libc.a(locale_data.os)
 .bss           0x00081fd8        0x4 /opt/hisi-linux-nptl/arm-hisiv100-linux/bin/../target/usr/lib/libc.a(brk.os)
                0x00081fd8                __curbrk
 .bss           0x00081fdc        0x0 /opt/hisi-linux-nptl/arm-hisiv100-linux/bin/../target/usr/lib/libc.a(fstat.os)
 .bss           0x00081fdc        0x0 /opt/hisi-linux-nptl/arm-hisiv100-linux/bin/../target/usr/lib/libc.a(gethostname.os)
 .bss           0x00081fdc        0x0 /opt/hisi-linux-nptl/arm-hisiv100-linux/bin/../target/usr/lib/libc.a(mremap.os)
 .bss           0x00081fdc        0x0 /opt/hisi-linux-nptl/arm-hisiv100-linux/bin/../target/usr/lib/libc.a(uname.os)
 .bss           0x00081fdc        0x0 /opt/hisi-linux-nptl/arm-hisiv100-linux/bin/../target/usr/lib/libc.a(getdents64.os)
 .bss           0x00081fdc        0x0 /opt/hisi-linux-nptl/arm-hisiv100-linux/bin/../target/usr/lib/libc.a(__C_ctype_tolower.os)
 .bss           0x00081fdc        0x0 /opt/hisi-linux-nptl/arm-hisiv100-linux/bin/../target/usr/lib/libc.a(__C_ctype_toupper.os)
 .bss           0x00081fdc        0x0 /opt/hisi-linux-nptl/arm-hisiv100-linux/bin/../target/usr/lib/libc.a(_wchar_wcsntoutf8s.os)
 .bss           0x00081fdc        0x0 /opt/hisi-linux-nptl/arm-hisiv100-linux/bin/../target/usr/lib/libc.a(fseeko.os)
 .bss           0x00081fdc        0x0 /opt/hisi-linux-nptl/arm-hisiv100-linux/bin/../target/usr/lib/libc.a(fseeko64.os)
 .bss           0x00081fdc        0x0 /opt/hisi-linux-nptl/arm-hisiv100-linux/bin/../target/usr/lib/libc.a(_READ.os)
 .bss           0x00081fdc        0x0 /opt/hisi-linux-nptl/arm-hisiv100-linux/bin/../target/usr/lib/libc.a(_adjust_pos.os)
 .bss           0x00081fdc        0x0 /opt/hisi-linux-nptl/arm-hisiv100-linux/bin/../target/usr/lib/libc.a(_rfill.os)
 .bss           0x00081fdc        0x0 /opt/hisi-linux-nptl/arm-hisiv100-linux/bin/../target/usr/lib/libc.a(_trans2r.os)
 .bss           0x00081fdc        0x0 /opt/hisi-linux-nptl/arm-hisiv100-linux/bin/../target/usr/lib/libc.a(strdup.os)
 .bss           0x00081fdc        0x0 /opt/hisi-linux-nptl/arm-hisiv100-linux/bin/../target/usr/lib/libc.a(ntop.os)
 .bss           0x00081fdc        0x0 /opt/hisi-linux-nptl/arm-hisiv100-linux/bin/../lib/gcc/arm-hisiv100-linux-uclibcgnueabi/4.4.1/libgcc.a(_divsi3.o)
 .bss           0x00081fdc        0x0 /opt/hisi-linux-nptl/arm-hisiv100-linux/bin/../lib/gcc/arm-hisiv100-linux-uclibcgnueabi/4.4.1/libgcc.a(_arm_cmpdf2.o)
 .bss           0x00081fdc        0x0 /opt/hisi-linux-nptl/arm-hisiv100-linux/bin/../lib/gcc/arm-hisiv100-linux-uclibcgnueabi/4.4.1/crtend.o
 .bss           0x00081fdc        0x0 /opt/hisi-linux-nptl/arm-hisiv100-linux/bin/../target/usr/lib/crtn.o
 *(COMMON)
 COMMON         0x00081fdc        0x8 /opt/hisi-linux-nptl/arm-hisiv100-linux/bin/../target/usr/lib/libpthread.a(pthread_create.os)
                0x00081fdc                __pthread_debug
                0x00081fe0                __libc_multiple_threads_ptr
 COMMON         0x00081fe4        0x4 /opt/hisi-linux-nptl/arm-hisiv100-linux/bin/../target/usr/lib/libpthread.a(pthread_once.os)
                0x00081fe4                __fork_generation
 COMMON         0x00081fe8        0x8 /opt/hisi-linux-nptl/arm-hisiv100-linux/bin/../target/usr/lib/libpthread.a(vars.os)
                0x00081fe8                __is_smp
                0x00081fec                __pthread_multiple_threads
 COMMON         0x00081ff0       0x10 /opt/hisi-linux-nptl/arm-hisiv100-linux/bin/../target/usr/lib/libpthread.a(init.os)
                0x00081ff0                __static_tls_align_m1
                0x00081ff4                __static_tls_size
                0x00081ff8                __set_robust_list_avail
                0x00081ffc                __xidcmd
 COMMON         0x00082000       0x30 /opt/hisi-linux-nptl/arm-hisiv100-linux/bin/../target/usr/lib/libc.a(tzset.os)
                0x00082000                _time_tzinfo
 COMMON         0x00082030       0x50 /opt/hisi-linux-nptl/arm-hisiv100-linux/bin/../target/usr/lib/libc.a(_ppfs_parsespec.os)
                0x00082030                _custom_printf_arginfo
                0x00082058                _custom_printf_handler
 COMMON         0x00082080      0x378 /opt/hisi-linux-nptl/arm-hisiv100-linux/bin/../target/usr/lib/libc.a(malloc.os)
                0x00082080                __malloc_state
 COMMON         0x000823f8        0x4 /opt/hisi-linux-nptl/arm-hisiv100-linux/bin/../target/usr/lib/libc.a(libc_multiple_threads.os)
                0x000823f8                __libc_multiple_threads
 COMMON         0x000823fc       0x20 /opt/hisi-linux-nptl/arm-hisiv100-linux/bin/../target/usr/lib/libc.a(libc-tls.os)
                0x000823fc                _dl_tls_static_used
                0x00082400                _dl_tls_static_align
                0x00082404                _dl_tls_max_dtv_idx
                0x00082408                _dl_tls_static_size
                0x0008240c                _dl_tls_dtv_slotinfo_list
                0x00082410                _dl_tls_dtv_gaps
                0x00082414                _dl_tls_generation
                0x00082418                _dl_tls_static_nelem
 COMMON         0x0008241c        0x8 /opt/hisi-linux-nptl/arm-hisiv100-linux/bin/../target/usr/lib/libc.a(dl-support.os)
                0x0008241c                _dl_phdr
                0x00082420                _dl_phnum
 COMMON         0x00082424        0x4 /opt/hisi-linux-nptl/arm-hisiv100-linux/bin/../target/usr/lib/libc.a(__uClibc_main.os)
                0x00082424                __stack_chk_guard
 COMMON         0x00082428      0xb1c /opt/hisi-linux-nptl/arm-hisiv100-linux/bin/../target/usr/lib/libc.a(_locale_init.os)
                0x00082428                __global_locale_data
 COMMON         0x00082f44       0x14 /opt/hisi-linux-nptl/arm-hisiv100-linux/bin/../target/usr/lib/libc.a(opennameservers.os)
                0x00082f44                __res_sync
                0x00082f48                __searchdomain
                0x00082f4c                __nameserver
                0x00082f50                __nameservers
                0x00082f54                __searchdomains
 COMMON         0x00082f58        0x8 /opt/hisi-linux-nptl/arm-hisiv100-linux/bin/../target/usr/lib/libc.a(fork.os)
                0x00082f58                __fork_generation_pointer
                0x00082f5c                __fork_handlers
                0x00082f60                . = ALIGN ((. != 0x0)?0x4:0x1)
                0x00082f60                _bss_end__ = .
                0x00082f60                __bss_end__ = .
                0x00082f60                . = ALIGN (0x4)
                0x00082f60                . = ALIGN (0x4)
                0x00082f60                __end__ = .
                0x00082f60                _end = .
                0x00082f60                PROVIDE (end, .)
                0x00082f60                . = DATA_SEGMENT_END (.)

.stab
 *(.stab)

.stabstr
 *(.stabstr)

.stab.excl
 *(.stab.excl)

.stab.exclstr
 *(.stab.exclstr)

.stab.index
 *(.stab.index)

.stab.indexstr
 *(.stab.indexstr)

.ARM.attributes
                0x00000000       0x29
 .ARM.attributes
                0x00000000       0x1d /opt/hisi-linux-nptl/arm-hisiv100-linux/bin/../target/usr/lib/crt1.o
 .ARM.attributes
                0x0000001d       0x1d /opt/hisi-linux-nptl/arm-hisiv100-linux/bin/../target/usr/lib/crti.o
 .ARM.attributes
                0x0000003a       0x2d /opt/hisi-linux-nptl/arm-hisiv100-linux/bin/../lib/gcc/arm-hisiv100-linux-uclibcgnueabi/4.4.1/crtbeginT.o
 .ARM.attributes
                0x00000067       0x2d main.o
 .ARM.attributes
                0x00000094       0x2d init.o
 .ARM.attributes
                0x000000c1       0x2d fvideo.o
 .ARM.attributes
                0x000000ee       0x2d videoenc.o
 .ARM.attributes
                0x0000011b       0x2d dvr/i2c/i2c.o
 .ARM.attributes
                0x00000148       0x2d dvr/sysreg/sys_reg_public.o
 .ARM.attributes
                0x00000175       0x2d /opt/hisi-linux-nptl/arm-hisiv100-linux/bin/../target/usr/lib/libpthread.a(pthread_create.os)
 .ARM.attributes
                0x000001a2       0x2d /opt/hisi-linux-nptl/arm-hisiv100-linux/bin/../target/usr/lib/libpthread.a(pthread_getspecific.os)
 .ARM.attributes
                0x000001cf       0x2d /opt/hisi-linux-nptl/arm-hisiv100-linux/bin/../target/usr/lib/libpthread.a(pthread_key_create.os)
 .ARM.attributes
                0x000001fc       0x2d /opt/hisi-linux-nptl/arm-hisiv100-linux/bin/../target/usr/lib/libpthread.a(pthread_key_delete.os)
 .ARM.attributes
                0x00000229       0x2d /opt/hisi-linux-nptl/arm-hisiv100-linux/bin/../target/usr/lib/libpthread.a(pthread_mutex_destroy.os)
 .ARM.attributes
                0x00000256       0x2d /opt/hisi-linux-nptl/arm-hisiv100-linux/bin/../target/usr/lib/libpthread.a(pthread_mutex_init.os)
 .ARM.attributes
                0x00000283       0x2d /opt/hisi-linux-nptl/arm-hisiv100-linux/bin/../target/usr/lib/libpthread.a(pthread_mutex_lock.os)
 .ARM.attributes
                0x000002b0       0x2d /opt/hisi-linux-nptl/arm-hisiv100-linux/bin/../target/usr/lib/libpthread.a(pthread_mutex_trylock.os)
 .ARM.attributes
                0x000002dd       0x2d /opt/hisi-linux-nptl/arm-hisiv100-linux/bin/../target/usr/lib/libpthread.a(pthread_mutex_unlock.os)
 .ARM.attributes
                0x0000030a       0x2d /opt/hisi-linux-nptl/arm-hisiv100-linux/bin/../target/usr/lib/libpthread.a(pthread_once.os)
 .ARM.attributes
                0x00000337       0x2d /opt/hisi-linux-nptl/arm-hisiv100-linux/bin/../target/usr/lib/libpthread.a(pthread_setspecific.os)
 .ARM.attributes
                0x00000364       0x2d /opt/hisi-linux-nptl/arm-hisiv100-linux/bin/../target/usr/lib/libpthread.a(tpp.os)
 .ARM.attributes
                0x00000391       0x2d /opt/hisi-linux-nptl/arm-hisiv100-linux/bin/../target/usr/lib/libpthread.a(vars.os)
 .ARM.attributes
                0x000003be       0x1d /opt/hisi-linux-nptl/arm-hisiv100-linux/bin/../target/usr/lib/libpthread.a(aeabi_read_tp.os)
 .ARM.attributes
                0x000003db       0x2d /opt/hisi-linux-nptl/arm-hisiv100-linux/bin/../target/usr/lib/libpthread.a(cancellation.os)
 .ARM.attributes
                0x00000408       0x2d /opt/hisi-linux-nptl/arm-hisiv100-linux/bin/../target/usr/lib/libpthread.a(cleanup_defer_compat.os)
 .ARM.attributes
                0x00000435       0x2d /opt/hisi-linux-nptl/arm-hisiv100-linux/bin/../target/usr/lib/libpthread.a(events.os)
 .ARM.attributes
                0x00000462       0x2d /opt/hisi-linux-nptl/arm-hisiv100-linux/bin/../target/usr/lib/libpthread.a(init.os)
 .ARM.attributes
                0x0000048f       0x2d /opt/hisi-linux-nptl/arm-hisiv100-linux/bin/../target/usr/lib/libpthread.a(lowlevellock.os)
 .ARM.attributes
                0x000004bc       0x2d /opt/hisi-linux-nptl/arm-hisiv100-linux/bin/../target/usr/lib/libpthread.a(lowlevelrobustlock.os)
 .ARM.attributes
                0x000004e9       0x2d /opt/hisi-linux-nptl/arm-hisiv100-linux/bin/../target/usr/lib/libpthread.a(pthread_cancel.os)
 .ARM.attributes
                0x00000516       0x2d /opt/hisi-linux-nptl/arm-hisiv100-linux/bin/../target/usr/lib/libpthread.a(unwind.os)
 .ARM.attributes
                0x00000543       0x2d /opt/hisi-linux-nptl/arm-hisiv100-linux/bin/../target/usr/lib/libpthread.a(pt-longjmp.os)
 .ARM.attributes
                0x00000570       0x2d ./lib/libmpi.a(mpi_venc.o)
 .ARM.attributes
                0x0000059d       0x2d ./lib/libmpi.a(mpi_vi.o)
 .ARM.attributes
                0x000005ca       0x2d ./lib/libmem.a(memcpy_back.o)
 .ARM.attributes
                0x000005f7       0x1d ./lib/libmem.a(memset1.o)
 .ARM.attributes
                0x00000614       0x1d ./lib/libmem.a(memcpy1.o)
 .ARM.attributes
                0x00000631       0x1f /opt/hisi-linux-nptl/arm-hisiv100-linux/bin/../lib/gcc/arm-hisiv100-linux-uclibcgnueabi/4.4.1/libgcc.a(_udivsi3.o)
 .ARM.attributes
                0x00000650       0x1f /opt/hisi-linux-nptl/arm-hisiv100-linux/bin/../lib/gcc/arm-hisiv100-linux-uclibcgnueabi/4.4.1/libgcc.a(_arm_addsubdf3.o)
 .ARM.attributes
                0x0000066f       0x1f /opt/hisi-linux-nptl/arm-hisiv100-linux/bin/../lib/gcc/arm-hisiv100-linux-uclibcgnueabi/4.4.1/libgcc.a(_arm_muldivdf3.o)
 .ARM.attributes
                0x0000068e       0x1f /opt/hisi-linux-nptl/arm-hisiv100-linux/bin/../lib/gcc/arm-hisiv100-linux-uclibcgnueabi/4.4.1/libgcc.a(_arm_fixunsdfsi.o)
 .ARM.attributes
                0x000006ad       0x1f /opt/hisi-linux-nptl/arm-hisiv100-linux/bin/../lib/gcc/arm-hisiv100-linux-uclibcgnueabi/4.4.1/libgcc.a(_dvmd_lnx.o)
 .ARM.attributes
                0x000006cc       0x2d /opt/hisi-linux-nptl/arm-hisiv100-linux/bin/../lib/gcc/arm-hisiv100-linux-uclibcgnueabi/4.4.1/libgcc_eh.a(unwind-arm.o)
 .ARM.attributes
                0x000006f9       0x1f /opt/hisi-linux-nptl/arm-hisiv100-linux/bin/../lib/gcc/arm-hisiv100-linux-uclibcgnueabi/4.4.1/libgcc_eh.a(libunwind.o)
 .ARM.attributes
                0x00000718       0x2d /opt/hisi-linux-nptl/arm-hisiv100-linux/bin/../lib/gcc/arm-hisiv100-linux-uclibcgnueabi/4.4.1/libgcc_eh.a(pr-support.o)
 .ARM.attributes
                0x00000745       0x2d /opt/hisi-linux-nptl/arm-hisiv100-linux/bin/../lib/gcc/arm-hisiv100-linux-uclibcgnueabi/4.4.1/libgcc_eh.a(unwind-c.o)
 .ARM.attributes
                0x00000772       0x2d /opt/hisi-linux-nptl/arm-hisiv100-linux/bin/../target/usr/lib/libc.a(sigaction.os)
 .ARM.attributes
                0x0000079f       0x2d /opt/hisi-linux-nptl/arm-hisiv100-linux/bin/../target/usr/lib/libc.a(mmap.os)
 .ARM.attributes
                0x000007cc       0x1d /opt/hisi-linux-nptl/arm-hisiv100-linux/bin/../target/usr/lib/libc.a(bsd-_setjmp.os)
 .ARM.attributes
                0x000007e9       0x1d /opt/hisi-linux-nptl/arm-hisiv100-linux/bin/../target/usr/lib/libc.a(sigrestorer.os)
 .ARM.attributes
                0x00000806       0x2d /opt/hisi-linux-nptl/arm-hisiv100-linux/bin/../target/usr/lib/libc.a(_exit.os)
 .ARM.attributes
                0x00000833       0x2d /opt/hisi-linux-nptl/arm-hisiv100-linux/bin/../target/usr/lib/libc.a(getpagesize.os)
 .ARM.attributes
                0x00000860       0x2d /opt/hisi-linux-nptl/arm-hisiv100-linux/bin/../target/usr/lib/libc.a(getrlimit.os)
 .ARM.attributes
                0x0000088d       0x2d /opt/hisi-linux-nptl/arm-hisiv100-linux/bin/../target/usr/lib/libc.a(gettimeofday.os)
 .ARM.attributes
                0x000008ba       0x2d /opt/hisi-linux-nptl/arm-hisiv100-linux/bin/../target/usr/lib/libc.a(ioctl.os)
 .ARM.attributes
                0x000008e7       0x2d /opt/hisi-linux-nptl/arm-hisiv100-linux/bin/../target/usr/lib/libc.a(longjmp.os)
 .ARM.attributes
                0x00000914       0x2d /opt/hisi-linux-nptl/arm-hisiv100-linux/bin/../target/usr/lib/libc.a(madvise.os)
 .ARM.attributes
                0x00000941       0x2d /opt/hisi-linux-nptl/arm-hisiv100-linux/bin/../target/usr/lib/libc.a(mprotect.os)
 .ARM.attributes
                0x0000096e       0x2d /opt/hisi-linux-nptl/arm-hisiv100-linux/bin/../target/usr/lib/libc.a(munmap.os)
 .ARM.attributes
                0x0000099b       0x2d /opt/hisi-linux-nptl/arm-hisiv100-linux/bin/../target/usr/lib/libc.a(sched_getparam.os)
 .ARM.attributes
                0x000009c8       0x2d /opt/hisi-linux-nptl/arm-hisiv100-linux/bin/../target/usr/lib/libc.a(sched_get_priority_max.os)
 .ARM.attributes
                0x000009f5       0x2d /opt/hisi-linux-nptl/arm-hisiv100-linux/bin/../target/usr/lib/libc.a(sched_get_priority_min.os)
 .ARM.attributes
                0x00000a22       0x2d /opt/hisi-linux-nptl/arm-hisiv100-linux/bin/../target/usr/lib/libc.a(sched_getscheduler.os)
 .ARM.attributes
                0x00000a4f       0x2d /opt/hisi-linux-nptl/arm-hisiv100-linux/bin/../target/usr/lib/libc.a(sched_setscheduler.os)
 .ARM.attributes
                0x00000a7c       0x2d /opt/hisi-linux-nptl/arm-hisiv100-linux/bin/../target/usr/lib/libc.a(sigprocmask.os)
 .ARM.attributes
                0x00000aa9       0x2d /opt/hisi-linux-nptl/arm-hisiv100-linux/bin/../target/usr/lib/libc.a(ssp.os)
 .ARM.attributes
                0x00000ad6       0x2d /opt/hisi-linux-nptl/arm-hisiv100-linux/bin/../target/usr/lib/libc.a(stat.os)
 .ARM.attributes
                0x00000b03       0x2d /opt/hisi-linux-nptl/arm-hisiv100-linux/bin/../target/usr/lib/libc.a(__syscall_rt_sigaction.os)
 .ARM.attributes
                0x00000b30       0x2d /opt/hisi-linux-nptl/arm-hisiv100-linux/bin/../target/usr/lib/libc.a(xstatconv.os)
 .ARM.attributes
                0x00000b5d       0x2d /opt/hisi-linux-nptl/arm-hisiv100-linux/bin/../target/usr/lib/libc.a(__assert.os)
 .ARM.attributes
                0x00000b8a       0x2d /opt/hisi-linux-nptl/arm-hisiv100-linux/bin/../target/usr/lib/libc.a(errno.os)
 .ARM.attributes
                0x00000bb7       0x2d /opt/hisi-linux-nptl/arm-hisiv100-linux/bin/../target/usr/lib/libc.a(__errno_location.os)
 .ARM.attributes
                0x00000be4       0x2d /opt/hisi-linux-nptl/arm-hisiv100-linux/bin/../target/usr/lib/libc.a(syslog.os)
 .ARM.attributes
                0x00000c11       0x2d /opt/hisi-linux-nptl/arm-hisiv100-linux/bin/../target/usr/lib/libc.a(ctime.os)
 .ARM.attributes
                0x00000c3e       0x2d /opt/hisi-linux-nptl/arm-hisiv100-linux/bin/../target/usr/lib/libc.a(localtime_r.os)
 .ARM.attributes
                0x00000c6b       0x2d /opt/hisi-linux-nptl/arm-hisiv100-linux/bin/../target/usr/lib/libc.a(tzset.os)
 .ARM.attributes
                0x00000c98       0x2d /opt/hisi-linux-nptl/arm-hisiv100-linux/bin/../target/usr/lib/libc.a(_time_localtime_tzi.os)
 .ARM.attributes
                0x00000cc5       0x2d /opt/hisi-linux-nptl/arm-hisiv100-linux/bin/../target/usr/lib/libc.a(fclose.os)
 .ARM.attributes
                0x00000cf2       0x2d /opt/hisi-linux-nptl/arm-hisiv100-linux/bin/../target/usr/lib/libc.a(fopen.os)
 .ARM.attributes
                0x00000d1f       0x2d /opt/hisi-linux-nptl/arm-hisiv100-linux/bin/../target/usr/lib/libc.a(puts.os)
 .ARM.attributes
                0x00000d4c       0x2d /opt/hisi-linux-nptl/arm-hisiv100-linux/bin/../target/usr/lib/libc.a(printf.os)
 .ARM.attributes
                0x00000d79       0x2d /opt/hisi-linux-nptl/arm-hisiv100-linux/bin/../target/usr/lib/libc.a(fprintf.os)
 .ARM.attributes
                0x00000da6       0x2d /opt/hisi-linux-nptl/arm-hisiv100-linux/bin/../target/usr/lib/libc.a(snprintf.os)
 .ARM.attributes
                0x00000dd3       0x2d /opt/hisi-linux-nptl/arm-hisiv100-linux/bin/../target/usr/lib/libc.a(sprintf.os)
 .ARM.attributes
                0x00000e00       0x2d /opt/hisi-linux-nptl/arm-hisiv100-linux/bin/../target/usr/lib/libc.a(vsnprintf.os)
 .ARM.attributes
                0x00000e2d       0x2d /opt/hisi-linux-nptl/arm-hisiv100-linux/bin/../target/usr/lib/libc.a(_fopen.os)
 .ARM.attributes
                0x00000e5a       0x2d /opt/hisi-linux-nptl/arm-hisiv100-linux/bin/../target/usr/lib/libc.a(_stdio.os)
 .ARM.attributes
                0x00000e87       0x2d /opt/hisi-linux-nptl/arm-hisiv100-linux/bin/../target/usr/lib/libc.a(_wcommit.os)
 .ARM.attributes
                0x00000eb4       0x2d /opt/hisi-linux-nptl/arm-hisiv100-linux/bin/../target/usr/lib/libc.a(_cs_funcs.os)
 .ARM.attributes
                0x00000ee1       0x2d /opt/hisi-linux-nptl/arm-hisiv100-linux/bin/../target/usr/lib/libc.a(vfprintf.os)
 .ARM.attributes
                0x00000f0e       0x2d /opt/hisi-linux-nptl/arm-hisiv100-linux/bin/../target/usr/lib/libc.a(_vfprintf_internal.os)
 .ARM.attributes
                0x00000f3b       0x2d /opt/hisi-linux-nptl/arm-hisiv100-linux/bin/../target/usr/lib/libc.a(_ppfs_init.os)
 .ARM.attributes
                0x00000f68       0x2d /opt/hisi-linux-nptl/arm-hisiv100-linux/bin/../target/usr/lib/libc.a(_ppfs_prepargs.os)
 .ARM.attributes
                0x00000f95       0x2d /opt/hisi-linux-nptl/arm-hisiv100-linux/bin/../target/usr/lib/libc.a(_ppfs_setargs.os)
 .ARM.attributes
                0x00000fc2       0x2d /opt/hisi-linux-nptl/arm-hisiv100-linux/bin/../target/usr/lib/libc.a(_ppfs_parsespec.os)
 .ARM.attributes
                0x00000fef       0x2d /opt/hisi-linux-nptl/arm-hisiv100-linux/bin/../target/usr/lib/libc.a(fwrite.os)
 .ARM.attributes
                0x0000101c       0x2d /opt/hisi-linux-nptl/arm-hisiv100-linux/bin/../target/usr/lib/libc.a(fflush_unlocked.os)
 .ARM.attributes
                0x00001049       0x2d /opt/hisi-linux-nptl/arm-hisiv100-linux/bin/../target/usr/lib/libc.a(fputc_unlocked.os)
 .ARM.attributes
                0x00001076       0x2d /opt/hisi-linux-nptl/arm-hisiv100-linux/bin/../target/usr/lib/libc.a(fputs_unlocked.os)
 .ARM.attributes
                0x000010a3       0x2d /opt/hisi-linux-nptl/arm-hisiv100-linux/bin/../target/usr/lib/libc.a(fwrite_unlocked.os)
 .ARM.attributes
                0x000010d0       0x1d /opt/hisi-linux-nptl/arm-hisiv100-linux/bin/../target/usr/lib/libc.a(memcpy.os)
 .ARM.attributes
                0x000010ed       0x1d /opt/hisi-linux-nptl/arm-hisiv100-linux/bin/../target/usr/lib/libc.a(memmove.os)
 .ARM.attributes
                0x0000110a       0x1d /opt/hisi-linux-nptl/arm-hisiv100-linux/bin/../target/usr/lib/libc.a(memset.os)
 .ARM.attributes
                0x00001127       0x1d /opt/hisi-linux-nptl/arm-hisiv100-linux/bin/../target/usr/lib/libc.a(strcmp.os)
 .ARM.attributes
                0x00001144       0x1d /opt/hisi-linux-nptl/arm-hisiv100-linux/bin/../target/usr/lib/libc.a(strlen.os)
 .ARM.attributes
                0x00001161       0x2d /opt/hisi-linux-nptl/arm-hisiv100-linux/bin/../target/usr/lib/libc.a(mempcpy.os)
 .ARM.attributes
                0x0000118e       0x2d /opt/hisi-linux-nptl/arm-hisiv100-linux/bin/../target/usr/lib/libc.a(strchr.os)
 .ARM.attributes
                0x000011bb       0x2d /opt/hisi-linux-nptl/arm-hisiv100-linux/bin/../target/usr/lib/libc.a(strcpy.os)
 .ARM.attributes
                0x000011e8       0x2d /opt/hisi-linux-nptl/arm-hisiv100-linux/bin/../target/usr/lib/libc.a(strncmp.os)
 .ARM.attributes
                0x00001215       0x2d /opt/hisi-linux-nptl/arm-hisiv100-linux/bin/../target/usr/lib/libc.a(strncpy.os)
 .ARM.attributes
                0x00001242       0x2d /opt/hisi-linux-nptl/arm-hisiv100-linux/bin/../target/usr/lib/libc.a(strnlen.os)
 .ARM.attributes
                0x0000126f       0x2d /opt/hisi-linux-nptl/arm-hisiv100-linux/bin/../target/usr/lib/libc.a(__glibc_strerror_r.os)
 .ARM.attributes
                0x0000129c       0x2d /opt/hisi-linux-nptl/arm-hisiv100-linux/bin/../target/usr/lib/libc.a(strerror.os)
 .ARM.attributes
                0x000012c9       0x2d /opt/hisi-linux-nptl/arm-hisiv100-linux/bin/../target/usr/lib/libc.a(__xpg_strerror_r.os)
 .ARM.attributes
                0x000012f6       0x2d /opt/hisi-linux-nptl/arm-hisiv100-linux/bin/../target/usr/lib/libc.a(isatty.os)
 .ARM.attributes
                0x00001323       0x2d /opt/hisi-linux-nptl/arm-hisiv100-linux/bin/../target/usr/lib/libc.a(tcgetattr.os)
 .ARM.attributes
                0x00001350       0x2d /opt/hisi-linux-nptl/arm-hisiv100-linux/bin/../target/usr/lib/libc.a(res_init.os)
 .ARM.attributes
                0x0000137d       0x2d /opt/hisi-linux-nptl/arm-hisiv100-linux/bin/../target/usr/lib/libc.a(connect.os)
 .ARM.attributes
                0x000013aa       0x2d /opt/hisi-linux-nptl/arm-hisiv100-linux/bin/../target/usr/lib/libc.a(send.os)
 .ARM.attributes
                0x000013d7       0x2d /opt/hisi-linux-nptl/arm-hisiv100-linux/bin/../target/usr/lib/libc.a(socket.os)
 .ARM.attributes
                0x00001404       0x2d /opt/hisi-linux-nptl/arm-hisiv100-linux/bin/../target/usr/lib/libc.a(malloc.os)
 .ARM.attributes
                0x00001431       0x2d /opt/hisi-linux-nptl/arm-hisiv100-linux/bin/../target/usr/lib/libc.a(calloc.os)
 .ARM.attributes
                0x0000145e       0x2d /opt/hisi-linux-nptl/arm-hisiv100-linux/bin/../target/usr/lib/libc.a(free.os)
 .ARM.attributes
                0x0000148b       0x2d /opt/hisi-linux-nptl/arm-hisiv100-linux/bin/../target/usr/lib/libc.a(abort.os)
 .ARM.attributes
                0x000014b8       0x2d /opt/hisi-linux-nptl/arm-hisiv100-linux/bin/../target/usr/lib/libc.a(getenv.os)
 .ARM.attributes
                0x000014e5       0x2d /opt/hisi-linux-nptl/arm-hisiv100-linux/bin/../target/usr/lib/libc.a(exit.os)
 .ARM.attributes
                0x00001512       0x2d /opt/hisi-linux-nptl/arm-hisiv100-linux/bin/../target/usr/lib/libc.a(sysconf.os)
 .ARM.attributes
                0x0000153f       0x1d /opt/hisi-linux-nptl/arm-hisiv100-linux/bin/../target/usr/lib/libc.a(clone.os)
 .ARM.attributes
                0x0000155c       0x2d /opt/hisi-linux-nptl/arm-hisiv100-linux/bin/../target/usr/lib/libc.a(libc_pthread_init.os)
 .ARM.attributes
                0x00001589       0x2d /opt/hisi-linux-nptl/arm-hisiv100-linux/bin/../target/usr/lib/libc.a(libc_multiple_threads.os)
 .ARM.attributes
                0x000015b6       0x2d /opt/hisi-linux-nptl/arm-hisiv100-linux/bin/../target/usr/lib/libc.a(register-atfork.os)
 .ARM.attributes
                0x000015e3       0x2d /opt/hisi-linux-nptl/arm-hisiv100-linux/bin/../target/usr/lib/libc.a(getpid.os)
 .ARM.attributes
                0x00001610       0x2d /opt/hisi-linux-nptl/arm-hisiv100-linux/bin/../target/usr/lib/libc.a(raise.os)
 .ARM.attributes
                0x0000163d       0x2d /opt/hisi-linux-nptl/arm-hisiv100-linux/bin/../target/usr/lib/libc.a(jmp-unwind.os)
 .ARM.attributes
                0x0000166a       0x1d /opt/hisi-linux-nptl/arm-hisiv100-linux/bin/../target/usr/lib/libc.a(close.os)
 .ARM.attributes
                0x00001687       0x1d /opt/hisi-linux-nptl/arm-hisiv100-linux/bin/../target/usr/lib/libc.a(open.os)
 .ARM.attributes
                0x000016a4       0x1d /opt/hisi-linux-nptl/arm-hisiv100-linux/bin/../target/usr/lib/libc.a(write.os)
 .ARM.attributes
                0x000016c1       0x1d /opt/hisi-linux-nptl/arm-hisiv100-linux/bin/../target/usr/lib/libc.a(read.os)
 .ARM.attributes
                0x000016de       0x2d /opt/hisi-linux-nptl/arm-hisiv100-linux/bin/../target/usr/lib/libc.a(libc-cancellation.os)
 .ARM.attributes
                0x0000170b       0x2d /opt/hisi-linux-nptl/arm-hisiv100-linux/bin/../target/usr/lib/libc.a(libc-tls.os)
 .ARM.attributes
                0x00001738       0x2d /opt/hisi-linux-nptl/arm-hisiv100-linux/bin/../target/usr/lib/libc.a(dl-tls.os)
 .ARM.attributes
                0x00001765       0x2d /opt/hisi-linux-nptl/arm-hisiv100-linux/bin/../target/usr/lib/libc.a(dl-support.os)
 .ARM.attributes
                0x00001792       0x2d /opt/hisi-linux-nptl/arm-hisiv100-linux/bin/../target/usr/lib/libc.a(__uClibc_main.os)
 .ARM.attributes
                0x000017bf       0x2d /opt/hisi-linux-nptl/arm-hisiv100-linux/bin/../target/usr/lib/libc.a(__syscall_error.os)
 .ARM.attributes
                0x000017ec       0x1d /opt/hisi-linux-nptl/arm-hisiv100-linux/bin/../target/usr/lib/libc.a(__longjmp.os)
 .ARM.attributes
                0x00001809       0x1d /opt/hisi-linux-nptl/arm-hisiv100-linux/bin/../target/usr/lib/libc.a(setjmp.os)
 .ARM.attributes
                0x00001826       0x2d /opt/hisi-linux-nptl/arm-hisiv100-linux/bin/../target/usr/lib/libc.a(getdtablesize.os)
 .ARM.attributes
                0x00001853       0x2d /opt/hisi-linux-nptl/arm-hisiv100-linux/bin/../target/usr/lib/libc.a(getegid.os)
 .ARM.attributes
                0x00001880       0x2d /opt/hisi-linux-nptl/arm-hisiv100-linux/bin/../target/usr/lib/libc.a(geteuid.os)
 .ARM.attributes
                0x000018ad       0x2d /opt/hisi-linux-nptl/arm-hisiv100-linux/bin/../target/usr/lib/libc.a(getgid.os)
 .ARM.attributes
                0x000018da       0x2d /opt/hisi-linux-nptl/arm-hisiv100-linux/bin/../target/usr/lib/libc.a(getuid.os)
 .ARM.attributes
                0x00001907       0x2d /opt/hisi-linux-nptl/arm-hisiv100-linux/bin/../target/usr/lib/libc.a(kill.os)
 .ARM.attributes
                0x00001934       0x2d /opt/hisi-linux-nptl/arm-hisiv100-linux/bin/../target/usr/lib/libc.a(lseek.os)
 .ARM.attributes
                0x00001961       0x2d /opt/hisi-linux-nptl/arm-hisiv100-linux/bin/../target/usr/lib/libc.a(sbrk.os)
 .ARM.attributes
                0x0000198e       0x2d /opt/hisi-linux-nptl/arm-hisiv100-linux/bin/../target/usr/lib/libc.a(__syscall_fcntl.os)
 .ARM.attributes
                0x000019bb       0x2d /opt/hisi-linux-nptl/arm-hisiv100-linux/bin/../target/usr/lib/libc.a(time.os)
 .ARM.attributes
                0x000019e8       0x2d /opt/hisi-linux-nptl/arm-hisiv100-linux/bin/../target/usr/lib/libc.a(llseek.os)
 .ARM.attributes
                0x00001a15       0x2d /opt/hisi-linux-nptl/arm-hisiv100-linux/bin/../target/usr/lib/libc.a(__C_ctype_b.os)
 .ARM.attributes
                0x00001a42       0x2d /opt/hisi-linux-nptl/arm-hisiv100-linux/bin/../target/usr/lib/libc.a(closedir.os)
 .ARM.attributes
                0x00001a6f       0x2d /opt/hisi-linux-nptl/arm-hisiv100-linux/bin/../target/usr/lib/libc.a(opendir.os)
 .ARM.attributes
                0x00001a9c       0x2d /opt/hisi-linux-nptl/arm-hisiv100-linux/bin/../target/usr/lib/libc.a(readdir64.os)
 .ARM.attributes
                0x00001ac9       0x2d /opt/hisi-linux-nptl/arm-hisiv100-linux/bin/../target/usr/lib/libc.a(parse_config.os)
 .ARM.attributes
                0x00001af6       0x2d /opt/hisi-linux-nptl/arm-hisiv100-linux/bin/../target/usr/lib/libc.a(_locale_init.os)
 .ARM.attributes
                0x00001b23       0x2d /opt/hisi-linux-nptl/arm-hisiv100-linux/bin/../target/usr/lib/libc.a(__locale_mbrtowc_l.os)
 .ARM.attributes
                0x00001b50       0x2d /opt/hisi-linux-nptl/arm-hisiv100-linux/bin/../target/usr/lib/libc.a(asctime.os)
 .ARM.attributes
                0x00001b7d       0x2d /opt/hisi-linux-nptl/arm-hisiv100-linux/bin/../target/usr/lib/libc.a(asctime_r.os)
 .ARM.attributes
                0x00001baa       0x2d /opt/hisi-linux-nptl/arm-hisiv100-linux/bin/../target/usr/lib/libc.a(_time_t2tm.os)
 .ARM.attributes
                0x00001bd7       0x2d /opt/hisi-linux-nptl/arm-hisiv100-linux/bin/../target/usr/lib/libc.a(wcrtomb.os)
 .ARM.attributes
                0x00001c04       0x2d /opt/hisi-linux-nptl/arm-hisiv100-linux/bin/../target/usr/lib/libc.a(mbsrtowcs.os)
 .ARM.attributes
                0x00001c31       0x2d /opt/hisi-linux-nptl/arm-hisiv100-linux/bin/../target/usr/lib/libc.a(wcsrtombs.os)
 .ARM.attributes
                0x00001c5e       0x2d /opt/hisi-linux-nptl/arm-hisiv100-linux/bin/../target/usr/lib/libc.a(_wchar_utf8sntowcs.os)
 .ARM.attributes
                0x00001c8b       0x2d /opt/hisi-linux-nptl/arm-hisiv100-linux/bin/../target/usr/lib/libc.a(mbsnrtowcs.os)
 .ARM.attributes
                0x00001cb8       0x2d /opt/hisi-linux-nptl/arm-hisiv100-linux/bin/../target/usr/lib/libc.a(wcsnrtombs.os)
 .ARM.attributes
                0x00001ce5       0x2d /opt/hisi-linux-nptl/arm-hisiv100-linux/bin/../target/usr/lib/libc.a(_WRITE.os)
 .ARM.attributes
                0x00001d12       0x2d /opt/hisi-linux-nptl/arm-hisiv100-linux/bin/../target/usr/lib/libc.a(_fwrite.os)
 .ARM.attributes
                0x00001d3f       0x2d /opt/hisi-linux-nptl/arm-hisiv100-linux/bin/../target/usr/lib/libc.a(_trans2w.os)
 .ARM.attributes
                0x00001d6c       0x2d /opt/hisi-linux-nptl/arm-hisiv100-linux/bin/../target/usr/lib/libc.a(_load_inttype.os)
 .ARM.attributes
                0x00001d99       0x2d /opt/hisi-linux-nptl/arm-hisiv100-linux/bin/../target/usr/lib/libc.a(_store_inttype.os)
 .ARM.attributes
                0x00001dc6       0x2d /opt/hisi-linux-nptl/arm-hisiv100-linux/bin/../target/usr/lib/libc.a(_uintmaxtostr.os)
 .ARM.attributes
                0x00001df3       0x2d /opt/hisi-linux-nptl/arm-hisiv100-linux/bin/../target/usr/lib/libc.a(_fpmaxtostr.os)
 .ARM.attributes
                0x00001e20       0x2d /opt/hisi-linux-nptl/arm-hisiv100-linux/bin/../target/usr/lib/libc.a(fgetc.os)
 .ARM.attributes
                0x00001e4d       0x2d /opt/hisi-linux-nptl/arm-hisiv100-linux/bin/../target/usr/lib/libc.a(fgets.os)
 .ARM.attributes
                0x00001e7a       0x2d /opt/hisi-linux-nptl/arm-hisiv100-linux/bin/../target/usr/lib/libc.a(fgetc_unlocked.os)
 .ARM.attributes
                0x00001ea7       0x2d /opt/hisi-linux-nptl/arm-hisiv100-linux/bin/../target/usr/lib/libc.a(fgets_unlocked.os)
 .ARM.attributes
                0x00001ed4       0x1d /opt/hisi-linux-nptl/arm-hisiv100-linux/bin/../target/usr/lib/libc.a(memcmp.os)
 .ARM.attributes
                0x00001ef1       0x1d /opt/hisi-linux-nptl/arm-hisiv100-linux/bin/../target/usr/lib/libc.a(_memcpy.os)
 .ARM.attributes
                0x00001f0e       0x2d /opt/hisi-linux-nptl/arm-hisiv100-linux/bin/../target/usr/lib/libc.a(memchr.os)
 .ARM.attributes
                0x00001f3b       0x2d /opt/hisi-linux-nptl/arm-hisiv100-linux/bin/../target/usr/lib/libc.a(memrchr.os)
 .ARM.attributes
                0x00001f68       0x2d /opt/hisi-linux-nptl/arm-hisiv100-linux/bin/../target/usr/lib/libc.a(strchrnul.os)
 .ARM.attributes
                0x00001f95       0x2d /opt/hisi-linux-nptl/arm-hisiv100-linux/bin/../target/usr/lib/libc.a(strcspn.os)
 .ARM.attributes
                0x00001fc2       0x2d /opt/hisi-linux-nptl/arm-hisiv100-linux/bin/../target/usr/lib/libc.a(strspn.os)
 .ARM.attributes
                0x00001fef       0x2d /opt/hisi-linux-nptl/arm-hisiv100-linux/bin/../target/usr/lib/libc.a(_string_syserrmsgs.os)
 .ARM.attributes
                0x0000201c       0x2d /opt/hisi-linux-nptl/arm-hisiv100-linux/bin/../target/usr/lib/libc.a(opennameservers.os)
 .ARM.attributes
                0x00002049       0x2d /opt/hisi-linux-nptl/arm-hisiv100-linux/bin/../target/usr/lib/libc.a(closenameservers.os)
 .ARM.attributes
                0x00002076       0x2d /opt/hisi-linux-nptl/arm-hisiv100-linux/bin/../target/usr/lib/libc.a(sigjmp.os)
 .ARM.attributes
                0x000020a3       0x2d /opt/hisi-linux-nptl/arm-hisiv100-linux/bin/../target/usr/lib/libc.a(realloc.os)
 .ARM.attributes
                0x000020d0       0x2d /opt/hisi-linux-nptl/arm-hisiv100-linux/bin/../target/usr/lib/libc.a(atol.os)
 .ARM.attributes
                0x000020fd       0x2d /opt/hisi-linux-nptl/arm-hisiv100-linux/bin/../target/usr/lib/libc.a(strtol.os)
 .ARM.attributes
                0x0000212a       0x2d /opt/hisi-linux-nptl/arm-hisiv100-linux/bin/../target/usr/lib/libc.a(_stdlib_strto_l.os)
 .ARM.attributes
                0x00002157       0x2d /opt/hisi-linux-nptl/arm-hisiv100-linux/bin/../target/usr/lib/libc.a(fork.os)
 .ARM.attributes
                0x00002184       0x2d /opt/hisi-linux-nptl/arm-hisiv100-linux/bin/../target/usr/lib/libc.a(locale_data.os)
 .ARM.attributes
                0x000021b1       0x2d /opt/hisi-linux-nptl/arm-hisiv100-linux/bin/../target/usr/lib/libc.a(brk.os)
 .ARM.attributes
                0x000021de       0x2d /opt/hisi-linux-nptl/arm-hisiv100-linux/bin/../target/usr/lib/libc.a(fstat.os)
 .ARM.attributes
                0x0000220b       0x2d /opt/hisi-linux-nptl/arm-hisiv100-linux/bin/../target/usr/lib/libc.a(gethostname.os)
 .ARM.attributes
                0x00002238       0x2d /opt/hisi-linux-nptl/arm-hisiv100-linux/bin/../target/usr/lib/libc.a(mremap.os)
 .ARM.attributes
                0x00002265       0x2d /opt/hisi-linux-nptl/arm-hisiv100-linux/bin/../target/usr/lib/libc.a(uname.os)
 .ARM.attributes
                0x00002292       0x2d /opt/hisi-linux-nptl/arm-hisiv100-linux/bin/../target/usr/lib/libc.a(getdents64.os)
 .ARM.attributes
                0x000022bf       0x2d /opt/hisi-linux-nptl/arm-hisiv100-linux/bin/../target/usr/lib/libc.a(__C_ctype_tolower.os)
 .ARM.attributes
                0x000022ec       0x2d /opt/hisi-linux-nptl/arm-hisiv100-linux/bin/../target/usr/lib/libc.a(__C_ctype_toupper.os)
 .ARM.attributes
                0x00002319       0x2d /opt/hisi-linux-nptl/arm-hisiv100-linux/bin/../target/usr/lib/libc.a(_wchar_wcsntoutf8s.os)
 .ARM.attributes
                0x00002346       0x2d /opt/hisi-linux-nptl/arm-hisiv100-linux/bin/../target/usr/lib/libc.a(fseeko.os)
 .ARM.attributes
                0x00002373       0x2d /opt/hisi-linux-nptl/arm-hisiv100-linux/bin/../target/usr/lib/libc.a(fseeko64.os)
 .ARM.attributes
                0x000023a0       0x2d /opt/hisi-linux-nptl/arm-hisiv100-linux/bin/../target/usr/lib/libc.a(_READ.os)
 .ARM.attributes
                0x000023cd       0x2d /opt/hisi-linux-nptl/arm-hisiv100-linux/bin/../target/usr/lib/libc.a(_adjust_pos.os)
 .ARM.attributes
                0x000023fa       0x2d /opt/hisi-linux-nptl/arm-hisiv100-linux/bin/../target/usr/lib/libc.a(_rfill.os)
 .ARM.attributes
                0x00002427       0x2d /opt/hisi-linux-nptl/arm-hisiv100-linux/bin/../target/usr/lib/libc.a(_trans2r.os)
 .ARM.attributes
                0x00002454       0x2d /opt/hisi-linux-nptl/arm-hisiv100-linux/bin/../target/usr/lib/libc.a(strdup.os)
 .ARM.attributes
                0x00002481       0x2d /opt/hisi-linux-nptl/arm-hisiv100-linux/bin/../target/usr/lib/libc.a(ntop.os)
 .ARM.attributes
                0x000024ae       0x1f /opt/hisi-linux-nptl/arm-hisiv100-linux/bin/../lib/gcc/arm-hisiv100-linux-uclibcgnueabi/4.4.1/libgcc.a(_divsi3.o)
 .ARM.attributes
                0x000024cd       0x1f /opt/hisi-linux-nptl/arm-hisiv100-linux/bin/../lib/gcc/arm-hisiv100-linux-uclibcgnueabi/4.4.1/libgcc.a(_arm_cmpdf2.o)
 .ARM.attributes
                0x000024ec       0x2d /opt/hisi-linux-nptl/arm-hisiv100-linux/bin/../lib/gcc/arm-hisiv100-linux-uclibcgnueabi/4.4.1/crtend.o
 .ARM.attributes
                0x00002519       0x1d /opt/hisi-linux-nptl/arm-hisiv100-linux/bin/../target/usr/lib/crtn.o

.comment        0x00000000      0x478
 *(.comment)
 .comment       0x00000000       0x2f /opt/hisi-linux-nptl/arm-hisiv100-linux/bin/../target/usr/lib/crti.o
 .comment       0x0000002f       0x4b /opt/hisi-linux-nptl/arm-hisiv100-linux/bin/../lib/gcc/arm-hisiv100-linux-uclibcgnueabi/4.4.1/crtbeginT.o
 .comment       0x0000007a       0x4b main.o
 .comment       0x000000c5       0x4b init.o
 .comment       0x00000110       0x4b fvideo.o
 .comment       0x0000015b       0x4b videoenc.o
 .comment       0x000001a6       0x4b dvr/i2c/i2c.o
 .comment       0x000001f1       0x4b dvr/sysreg/sys_reg_public.o
 .comment       0x0000023c       0x4b ./lib/libmpi.a(mpi_venc.o)
 .comment       0x00000287       0x4b ./lib/libmpi.a(mpi_vi.o)
 .comment       0x000002d2       0x4b ./lib/libmem.a(memcpy_back.o)
 .comment       0x0000031d       0x4b /opt/hisi-linux-nptl/arm-hisiv100-linux/bin/../lib/gcc/arm-hisiv100-linux-uclibcgnueabi/4.4.1/libgcc_eh.a(unwind-arm.o)
 .comment       0x00000368       0x4b /opt/hisi-linux-nptl/arm-hisiv100-linux/bin/../lib/gcc/arm-hisiv100-linux-uclibcgnueabi/4.4.1/libgcc_eh.a(pr-support.o)
 .comment       0x000003b3       0x4b /opt/hisi-linux-nptl/arm-hisiv100-linux/bin/../lib/gcc/arm-hisiv100-linux-uclibcgnueabi/4.4.1/libgcc_eh.a(unwind-c.o)
 .comment       0x000003fe       0x4b /opt/hisi-linux-nptl/arm-hisiv100-linux/bin/../lib/gcc/arm-hisiv100-linux-uclibcgnueabi/4.4.1/crtend.o
 .comment       0x00000449       0x2f /opt/hisi-linux-nptl/arm-hisiv100-linux/bin/../target/usr/lib/crtn.o

.debug
 *(.debug)

.line
 *(.line)

.debug_srcinfo
 *(.debug_srcinfo)

.debug_sfnames
 *(.debug_sfnames)

.debug_aranges
 *(.debug_aranges)

.debug_pubnames
 *(.debug_pubnames)

.debug_info
 *(.debug_info .gnu.linkonce.wi.*)

.debug_abbrev
 *(.debug_abbrev)

.debug_line
 *(.debug_line)

.debug_frame
 *(.debug_frame)

.debug_str
 *(.debug_str)

.debug_loc
 *(.debug_loc)

.debug_macinfo
 *(.debug_macinfo)

.debug_weaknames
 *(.debug_weaknames)

.debug_funcnames
 *(.debug_funcnames)

.debug_typenames
 *(.debug_typenames)

.debug_varnames
 *(.debug_varnames)

.debug_pubtypes
 *(.debug_pubtypes)

.debug_ranges
 *(.debug_ranges)

.gnu.attributes
 *(.gnu.attributes)

.note.gnu.arm.ident
 *(.note.gnu.arm.ident)

/DISCARD/
 *(.note.GNU-stack)
 *(.gnu_debuglink)
OUTPUT(myrec elf32-littlearm)
